
out.elf:     file format elf32-tradlittlemips


Disassembly of section .reset:

bd001970 <_reset>:
bd001970:	0f40065e 	jal	bd001978 <_startup>
bd001974:	00000000 	nop

bd001978 <_startup>:
bd001978:	401a6000 	mfc0	k0,c0_status
bd00197c:	7f5a04c0 	ext	k0,k0,0x13,0x1
bd001980:	13400005 	beqz	k0,bd001998 <_no_nmi>
bd001984:	00000000 	nop
bd001988:	3c1a9d00 	lui	k0,0x9d00
bd00198c:	275a7a8c 	addiu	k0,k0,31372
bd001990:	03400008 	jr	k0
bd001994:	00000000 	nop

bd001998 <_no_nmi>:
bd001998:	3c1da002 	lui	sp,0xa002
bd00199c:	27bdfff8 	addiu	sp,sp,-8
bd0019a0:	3c1ca001 	lui	gp,0xa001
bd0019a4:	279c8020 	addiu	gp,gp,-32736
bd0019a8:	40096002 	mfc0	t1,c0_srsctl
bd0019ac:	01205820 	add	t3,t1,zero
bd0019b0:	7d2a1e80 	ext	t2,t1,0x1a,0x4
bd0019b4:	7d494984 	ins	t1,t2,0x6,0x4
bd0019b8:	40896002 	mtc0	t1,c0_srsctl
bd0019bc:	000000c0 	ehb
bd0019c0:	41dce000 	wrpgpr	gp,gp
bd0019c4:	408b6002 	mtc0	t3,c0_srsctl
bd0019c8:	000000c0 	ehb
bd0019cc:	3c089d00 	lui	t0,0x9d00
bd0019d0:	25087bd8 	addiu	t0,t0,31704
bd0019d4:	0100f809 	jalr	t0
bd0019d8:	00000000 	nop
bd0019dc:	3c08a000 	lui	t0,0xa000
bd0019e0:	2508003c 	addiu	t0,t0,60
bd0019e4:	3c09a000 	lui	t1,0xa000
bd0019e8:	25291644 	addiu	t1,t1,5700
bd0019ec:	10000006 	b	bd001a08 <_bss_check>
bd0019f0:	00000000 	nop

bd0019f4 <_bss_init>:
bd0019f4:	ad000000 	sw	zero,0(t0)
bd0019f8:	ad000004 	sw	zero,4(t0)
bd0019fc:	ad000008 	sw	zero,8(t0)
bd001a00:	ad00000c 	sw	zero,12(t0)
bd001a04:	25080010 	addiu	t0,t0,16

bd001a08 <_bss_check>:
bd001a08:	0109082b 	sltu	at,t0,t1
bd001a0c:	1420fff9 	bnez	at,bd0019f4 <_bss_init>
bd001a10:	00000000 	nop

bd001a14 <_dinit_init>:
bd001a14:	3c089d00 	lui	t0,0x9d00
bd001a18:	250865c0 	addiu	t0,t0,26048
bd001a1c:	8d090000 	lw	t1,0(t0)
bd001a20:	11200018 	beqz	t1,bd001a84 <_dinit_end+0x18>
bd001a24:	25080004 	addiu	t0,t0,4
bd001a28:	8d0a0000 	lw	t2,0(t0)
bd001a2c:	25080004 	addiu	t0,t0,4
bd001a30:	8d0b0000 	lw	t3,0(t0)
bd001a34:	11600009 	beqz	t3,bd001a5c <_dinit_clear>
bd001a38:	25080004 	addiu	t0,t0,4

bd001a3c <_dinit_copy>:
bd001a3c:	910c0000 	lbu	t4,0(t0)
bd001a40:	254affff 	addiu	t2,t2,-1
bd001a44:	25080001 	addiu	t0,t0,1
bd001a48:	a12c0000 	sb	t4,0(t1)
bd001a4c:	1540fffb 	bnez	t2,bd001a3c <_dinit_copy>
bd001a50:	25290001 	addiu	t1,t1,1
bd001a54:	10000005 	b	bd001a6c <_dinit_end>
bd001a58:	00000000 	nop

bd001a5c <_dinit_clear>:
bd001a5c:	a1200000 	sb	zero,0(t1)
bd001a60:	254affff 	addiu	t2,t2,-1
bd001a64:	1540fffd 	bnez	t2,bd001a5c <_dinit_clear>
bd001a68:	25290001 	addiu	t1,t1,1

bd001a6c <_dinit_end>:
bd001a6c:	25080003 	addiu	t0,t0,3
bd001a70:	240afffc 	li	t2,-4
bd001a74:	01484024 	and	t0,t2,t0
bd001a78:	8d090000 	lw	t1,0(t0)
bd001a7c:	1520ffe7 	bnez	t1,bd001a1c <_dinit_init+0x8>
bd001a80:	00000000 	nop
bd001a84:	3c090000 	lui	t1,0x0
bd001a88:	25290000 	addiu	t1,t1,0
bd001a8c:	11200010 	beqz	t1,bd001ad0 <_ramfunc_done>
bd001a90:	00000000 	nop
bd001a94:	3c090002 	lui	t1,0x2
bd001a98:	25290000 	addiu	t1,t1,0
bd001a9c:	3c0abf88 	lui	t2,0xbf88
bd001aa0:	254a2010 	addiu	t2,t2,8208
bd001aa4:	ad490000 	sw	t1,0(t2)
bd001aa8:	3c090002 	lui	t1,0x2
bd001aac:	25290000 	addiu	t1,t1,0
bd001ab0:	3c0abf88 	lui	t2,0xbf88
bd001ab4:	254a2020 	addiu	t2,t2,8224
bd001ab8:	ad490000 	sw	t1,0(t2)
bd001abc:	3c090002 	lui	t1,0x2
bd001ac0:	25290000 	addiu	t1,t1,0
bd001ac4:	3c0abf88 	lui	t2,0xbf88
bd001ac8:	254a2030 	addiu	t2,t2,8240
bd001acc:	ad490000 	sw	t1,0(t2)

bd001ad0 <_ramfunc_done>:
bd001ad0:	40804800 	mtc0	zero,c0_count
bd001ad4:	240affff 	li	t2,-1
bd001ad8:	408a5800 	mtc0	t2,c0_compare
bd001adc:	3c099d00 	lui	t1,0x9d00
bd001ae0:	25290000 	addiu	t1,t1,0
bd001ae4:	40897801 	mtc0	t1,c0_ebase
bd001ae8:	3c090000 	lui	t1,0x0
bd001aec:	25290001 	addiu	t1,t1,1
bd001af0:	240a0000 	li	t2,0
bd001af4:	7d2a4944 	ins	t2,t1,0x5,0x5
bd001af8:	408a6001 	mtc0	t2,c0_intctl
bd001afc:	3c090080 	lui	t1,0x80
bd001b00:	40896800 	mtc0	t1,c0_cause
bd001b04:	40088000 	mfc0	t0,c0_config
bd001b08:	7d090580 	ext	t1,t0,0x16,0x1
bd001b0c:	00094c40 	sll	t1,t1,0x11
bd001b10:	40086000 	mfc0	t0,c0_status
bd001b14:	3c010058 	lui	at,0x58
bd001b18:	01014024 	and	t0,t0,at
bd001b1c:	01284025 	or	t0,t1,t0
bd001b20:	40886000 	mtc0	t0,c0_status
bd001b24:	3c089d00 	lui	t0,0x9d00
bd001b28:	25087be0 	addiu	t0,t0,31712
bd001b2c:	0100f809 	jalr	t0
bd001b30:	00000000 	nop
bd001b34:	40086000 	mfc0	t0,c0_status
bd001b38:	3c01ffbf 	lui	at,0xffbf
bd001b3c:	3421ffff 	ori	at,at,0xffff
bd001b40:	01014024 	and	t0,t0,at
bd001b44:	40886000 	mtc0	t0,c0_status
bd001b48:	30840000 	andi	a0,a0,0x0
bd001b4c:	30a50000 	andi	a1,a1,0x0
bd001b50:	3c089d00 	lui	t0,0x9d00
bd001b54:	2508773c 	addiu	t0,t0,30524
bd001b58:	01000008 	jr	t0
bd001b5c:	00000000 	nop

Disassembly of section .bev_excpt:

bd001cf0 <_bev_exception>:
bd001cf0:	3c1a9d00 	lui	k0,0x9d00
bd001cf4:	275a7788 	addiu	k0,k0,30600
bd001cf8:	03400008 	jr	k0
bd001cfc:	00000000 	nop

Disassembly of section .app_excpt:

9d000180 <_gen_exception>:
9d000180:	3c1a9d00 	lui	k0,0x9d00
9d000184:	275a6f4c 	addiu	k0,k0,28492
9d000188:	03400008 	jr	k0
9d00018c:	00000000 	nop

Disassembly of section .vector_0:

9d000200 <__vector_dispatch_0>:
9d000200:	0b401e4b 	j	9d00792c <_DefaultInterrupt>
9d000204:	00000000 	nop

Disassembly of section .vector_1:

9d000220 <__vector_dispatch_1>:
9d000220:	0b401e4b 	j	9d00792c <_DefaultInterrupt>
9d000224:	00000000 	nop

Disassembly of section .vector_2:

9d000240 <__vector_dispatch_2>:
9d000240:	0b401e4b 	j	9d00792c <_DefaultInterrupt>
9d000244:	00000000 	nop

Disassembly of section .vector_3:

9d000260 <__vector_dispatch_3>:
9d000260:	0b401e4b 	j	9d00792c <_DefaultInterrupt>
9d000264:	00000000 	nop

Disassembly of section .vector_4:

9d000280 <__vector_dispatch_4>:
9d000280:	0b401e4b 	j	9d00792c <_DefaultInterrupt>
9d000284:	00000000 	nop

Disassembly of section .vector_5:

9d0002a0 <__vector_dispatch_5>:
9d0002a0:	0b401e4b 	j	9d00792c <_DefaultInterrupt>
9d0002a4:	00000000 	nop

Disassembly of section .vector_6:

9d0002c0 <__vector_dispatch_6>:
9d0002c0:	0b401e4b 	j	9d00792c <_DefaultInterrupt>
9d0002c4:	00000000 	nop

Disassembly of section .vector_7:

9d0002e0 <__vector_dispatch_7>:
9d0002e0:	0b401e4b 	j	9d00792c <_DefaultInterrupt>
9d0002e4:	00000000 	nop

Disassembly of section .vector_8:

9d000300 <__vector_dispatch_8>:
9d000300:	0b400d17 	j	9d00345c <Controller>
9d000304:	00000000 	nop

Disassembly of section .vector_9:

9d000320 <__vector_dispatch_9>:
9d000320:	0b401e4b 	j	9d00792c <_DefaultInterrupt>
9d000324:	00000000 	nop

Disassembly of section .vector_10:

9d000340 <__vector_dispatch_10>:
9d000340:	0b401e4b 	j	9d00792c <_DefaultInterrupt>
9d000344:	00000000 	nop

Disassembly of section .vector_11:

9d000360 <__vector_dispatch_11>:
9d000360:	0b401e4b 	j	9d00792c <_DefaultInterrupt>
9d000364:	00000000 	nop

Disassembly of section .vector_12:

9d000380 <__vector_dispatch_12>:
9d000380:	0b401e4b 	j	9d00792c <_DefaultInterrupt>
9d000384:	00000000 	nop

Disassembly of section .vector_13:

9d0003a0 <__vector_dispatch_13>:
9d0003a0:	0b401e4b 	j	9d00792c <_DefaultInterrupt>
9d0003a4:	00000000 	nop

Disassembly of section .vector_14:

9d0003c0 <__vector_dispatch_14>:
9d0003c0:	0b401e4b 	j	9d00792c <_DefaultInterrupt>
9d0003c4:	00000000 	nop

Disassembly of section .vector_15:

9d0003e0 <__vector_dispatch_15>:
9d0003e0:	0b401e4b 	j	9d00792c <_DefaultInterrupt>
9d0003e4:	00000000 	nop

Disassembly of section .vector_16:

9d000400 <__vector_dispatch_16>:
9d000400:	0b401e4b 	j	9d00792c <_DefaultInterrupt>
9d000404:	00000000 	nop

Disassembly of section .vector_17:

9d000420 <__vector_dispatch_17>:
9d000420:	0b401e4b 	j	9d00792c <_DefaultInterrupt>
9d000424:	00000000 	nop

Disassembly of section .vector_18:

9d000440 <__vector_dispatch_18>:
9d000440:	0b401e4b 	j	9d00792c <_DefaultInterrupt>
9d000444:	00000000 	nop

Disassembly of section .vector_19:

9d000460 <__vector_dispatch_19>:
9d000460:	0b401e4b 	j	9d00792c <_DefaultInterrupt>
9d000464:	00000000 	nop

Disassembly of section .vector_20:

9d000480 <__vector_dispatch_20>:
9d000480:	0b401e4b 	j	9d00792c <_DefaultInterrupt>
9d000484:	00000000 	nop

Disassembly of section .vector_21:

9d0004a0 <__vector_dispatch_21>:
9d0004a0:	0b401e4b 	j	9d00792c <_DefaultInterrupt>
9d0004a4:	00000000 	nop

Disassembly of section .vector_22:

9d0004c0 <__vector_dispatch_22>:
9d0004c0:	0b401e4b 	j	9d00792c <_DefaultInterrupt>
9d0004c4:	00000000 	nop

Disassembly of section .vector_23:

9d0004e0 <__vector_dispatch_23>:
9d0004e0:	0b401e4b 	j	9d00792c <_DefaultInterrupt>
9d0004e4:	00000000 	nop

Disassembly of section .vector_24:

9d000500 <__vector_dispatch_24>:
9d000500:	0b401e4b 	j	9d00792c <_DefaultInterrupt>
9d000504:	00000000 	nop

Disassembly of section .vector_25:

9d000520 <__vector_dispatch_25>:
9d000520:	0b401e4b 	j	9d00792c <_DefaultInterrupt>
9d000524:	00000000 	nop

Disassembly of section .vector_26:

9d000540 <__vector_dispatch_26>:
9d000540:	0b401e4b 	j	9d00792c <_DefaultInterrupt>
9d000544:	00000000 	nop

Disassembly of section .vector_27:

9d000560 <__vector_dispatch_27>:
9d000560:	0b401e4b 	j	9d00792c <_DefaultInterrupt>
9d000564:	00000000 	nop

Disassembly of section .vector_28:

9d000580 <__vector_dispatch_28>:
9d000580:	0b401e4b 	j	9d00792c <_DefaultInterrupt>
9d000584:	00000000 	nop

Disassembly of section .vector_29:

9d0005a0 <__vector_dispatch_29>:
9d0005a0:	0b401e4b 	j	9d00792c <_DefaultInterrupt>
9d0005a4:	00000000 	nop

Disassembly of section .vector_30:

9d0005c0 <__vector_dispatch_30>:
9d0005c0:	0b401e4b 	j	9d00792c <_DefaultInterrupt>
9d0005c4:	00000000 	nop

Disassembly of section .vector_31:

9d0005e0 <__vector_dispatch_31>:
9d0005e0:	0b401e4b 	j	9d00792c <_DefaultInterrupt>
9d0005e4:	00000000 	nop

Disassembly of section .vector_32:

9d000600 <__vector_dispatch_32>:
9d000600:	0b401e4b 	j	9d00792c <_DefaultInterrupt>
9d000604:	00000000 	nop

Disassembly of section .vector_33:

9d000620 <__vector_dispatch_33>:
9d000620:	0b401e4b 	j	9d00792c <_DefaultInterrupt>
9d000624:	00000000 	nop

Disassembly of section .vector_34:

9d000640 <__vector_dispatch_34>:
9d000640:	0b401e4b 	j	9d00792c <_DefaultInterrupt>
9d000644:	00000000 	nop

Disassembly of section .vector_35:

9d000660 <__vector_dispatch_35>:
9d000660:	0b401e4b 	j	9d00792c <_DefaultInterrupt>
9d000664:	00000000 	nop

Disassembly of section .vector_36:

9d000680 <__vector_dispatch_36>:
9d000680:	0b401e4b 	j	9d00792c <_DefaultInterrupt>
9d000684:	00000000 	nop

Disassembly of section .vector_37:

9d0006a0 <__vector_dispatch_37>:
9d0006a0:	0b401e4b 	j	9d00792c <_DefaultInterrupt>
9d0006a4:	00000000 	nop

Disassembly of section .vector_38:

9d0006c0 <__vector_dispatch_38>:
9d0006c0:	0b401e4b 	j	9d00792c <_DefaultInterrupt>
9d0006c4:	00000000 	nop

Disassembly of section .vector_39:

9d0006e0 <__vector_dispatch_39>:
9d0006e0:	0b401e4b 	j	9d00792c <_DefaultInterrupt>
9d0006e4:	00000000 	nop

Disassembly of section .vector_40:

9d000700 <__vector_dispatch_40>:
9d000700:	0b401e4b 	j	9d00792c <_DefaultInterrupt>
9d000704:	00000000 	nop

Disassembly of section .vector_41:

9d000720 <__vector_dispatch_41>:
9d000720:	0b401e4b 	j	9d00792c <_DefaultInterrupt>
9d000724:	00000000 	nop

Disassembly of section .vector_42:

9d000740 <__vector_dispatch_42>:
9d000740:	0b401e4b 	j	9d00792c <_DefaultInterrupt>
9d000744:	00000000 	nop

Disassembly of section .vector_43:

9d000760 <__vector_dispatch_43>:
9d000760:	0b401e4b 	j	9d00792c <_DefaultInterrupt>
9d000764:	00000000 	nop

Disassembly of section .vector_44:

9d000780 <__vector_dispatch_44>:
9d000780:	0b401e4b 	j	9d00792c <_DefaultInterrupt>
9d000784:	00000000 	nop

Disassembly of section .vector_45:

9d0007a0 <__vector_dispatch_45>:
9d0007a0:	0b401e4b 	j	9d00792c <_DefaultInterrupt>
9d0007a4:	00000000 	nop

Disassembly of section .vector_46:

9d0007c0 <__vector_dispatch_46>:
9d0007c0:	0b401e4b 	j	9d00792c <_DefaultInterrupt>
9d0007c4:	00000000 	nop

Disassembly of section .vector_47:

9d0007e0 <__vector_dispatch_47>:
9d0007e0:	0b401e4b 	j	9d00792c <_DefaultInterrupt>
9d0007e4:	00000000 	nop

Disassembly of section .vector_48:

9d000800 <__vector_dispatch_48>:
9d000800:	0b401e4b 	j	9d00792c <_DefaultInterrupt>
9d000804:	00000000 	nop

Disassembly of section .vector_49:

9d000820 <__vector_dispatch_49>:
9d000820:	0b401e4b 	j	9d00792c <_DefaultInterrupt>
9d000824:	00000000 	nop

Disassembly of section .vector_50:

9d000840 <__vector_dispatch_50>:
9d000840:	0b401e4b 	j	9d00792c <_DefaultInterrupt>
9d000844:	00000000 	nop

Disassembly of section .vector_51:

9d000860 <__vector_dispatch_51>:
9d000860:	0b401e4b 	j	9d00792c <_DefaultInterrupt>
9d000864:	00000000 	nop

Disassembly of section ._debug_exception:

bfc00480 <__DbgExecReturn>:
bfc00480:	409bf800 	mtc0	k1,c0_desave
bfc00484:	000000c0 	ehb
bfc00488:	3c1b9d00 	lui	k1,0x9d00
bfc0048c:	277b7860 	addiu	k1,k1,30816
bfc00490:	13600002 	beqz	k1,bfc0049c <__DbgExecReturn+0x1c>
bfc00494:	00000000 	nop
bfc00498:	409bc000 	mtc0	k1,c0_depc
bfc0049c:	401bf800 	mfc0	k1,c0_desave
bfc004a0:	000000c0 	ehb
bfc004a4:	4200001f 	deret
bfc004a8:	00000000 	nop

Disassembly of section .text._vfprintf_cdnopuxX:

9d001e00 <_vfprintf_cdnopuxX>:
9d001e00:	27bdffa8 	addiu	sp,sp,-88
9d001e04:	afb60048 	sw	s6,72(sp)
9d001e08:	afb3003c 	sw	s3,60(sp)
9d001e0c:	afb20038 	sw	s2,56(sp)
9d001e10:	afbf0054 	sw	ra,84(sp)
9d001e14:	afbe0050 	sw	s8,80(sp)
9d001e18:	afb7004c 	sw	s7,76(sp)
9d001e1c:	afb50044 	sw	s5,68(sp)
9d001e20:	afb40040 	sw	s4,64(sp)
9d001e24:	afb10034 	sw	s1,52(sp)
9d001e28:	afb00030 	sw	s0,48(sp)
9d001e2c:	0080b021 	move	s6,a0
9d001e30:	00a09821 	move	s3,a1
9d001e34:	afa60060 	sw	a2,96(sp)
9d001e38:	00009021 	move	s2,zero
9d001e3c:	82640000 	lb	a0,0(s3)
9d001e40:	10800041 	beqz	a0,9d001f48 <_vfprintf_cdnopuxX+0x148>
9d001e44:	a3a40010 	sb	a0,16(sp)
9d001e48:	24020025 	li	v0,37
9d001e4c:	1482006f 	bne	a0,v0,9d00200c <_vfprintf_cdnopuxX+0x20c>
9d001e50:	26700001 	addiu	s0,s3,1
9d001e54:	26640002 	addiu	a0,s3,2
9d001e58:	8082ffff 	lb	v0,-1(a0)
9d001e5c:	2406002d 	li	a2,45
9d001e60:	00001821 	move	v1,zero
9d001e64:	24080030 	li	t0,48
9d001e68:	24070020 	li	a3,32
9d001e6c:	2409002b 	li	t1,43
9d001e70:	10460063 	beq	v0,a2,9d002000 <_vfprintf_cdnopuxX+0x200>
9d001e74:	2493ffff 	addiu	s3,a0,-1
9d001e78:	2845002e 	slti	a1,v0,46
9d001e7c:	10a00059 	beqz	a1,9d001fe4 <_vfprintf_cdnopuxX+0x1e4>
9d001e80:	00000000 	nop
9d001e84:	5047006a 	beql	v0,a3,9d002030 <_vfprintf_cdnopuxX+0x230>
9d001e88:	34630001 	ori	v1,v1,0x1
9d001e8c:	50490066 	beql	v0,t1,9d002028 <_vfprintf_cdnopuxX+0x228>
9d001e90:	34630002 	ori	v1,v1,0x2
9d001e94:	30640002 	andi	a0,v1,0x2
9d001e98:	54800001 	bnezl	a0,9d001ea0 <_vfprintf_cdnopuxX+0xa0>
9d001e9c:	3063fffe 	andi	v1,v1,0xfffe
9d001ea0:	30640008 	andi	a0,v1,0x8
9d001ea4:	54800001 	bnezl	a0,9d001eac <_vfprintf_cdnopuxX+0xac>
9d001ea8:	3063fffb 	andi	v1,v1,0xfffb
9d001eac:	3c059d00 	lui	a1,0x9d00
9d001eb0:	24a56c44 	addiu	a1,a1,27716
9d001eb4:	00a22021 	addu	a0,a1,v0
9d001eb8:	90840001 	lbu	a0,1(a0)
9d001ebc:	30840004 	andi	a0,a0,0x4
9d001ec0:	1080005d 	beqz	a0,9d002038 <_vfprintf_cdnopuxX+0x238>
9d001ec4:	2404002a 	li	a0,42
9d001ec8:	00004021 	move	t0,zero
9d001ecc:	00088040 	sll	s0,t0,0x1
9d001ed0:	000840c0 	sll	t0,t0,0x3
9d001ed4:	02084021 	addu	t0,s0,t0
9d001ed8:	26730001 	addiu	s3,s3,1
9d001edc:	01024021 	addu	t0,t0,v0
9d001ee0:	3c079d00 	lui	a3,0x9d00
9d001ee4:	82620000 	lb	v0,0(s3)
9d001ee8:	24e76c44 	addiu	a3,a3,27716
9d001eec:	00e22021 	addu	a0,a3,v0
9d001ef0:	90840001 	lbu	a0,1(a0)
9d001ef4:	30840004 	andi	a0,a0,0x4
9d001ef8:	1480fff4 	bnez	a0,9d001ecc <_vfprintf_cdnopuxX+0xcc>
9d001efc:	2508ffd0 	addiu	t0,t0,-48
9d001f00:	2404002e 	li	a0,46
9d001f04:	5044001d 	beql	v0,a0,9d001f7c <_vfprintf_cdnopuxX+0x17c>
9d001f08:	26730001 	addiu	s3,s3,1
9d001f0c:	00008021 	move	s0,zero
9d001f10:	2404006c 	li	a0,108
9d001f14:	a3a20010 	sb	v0,16(sp)
9d001f18:	10440143 	beq	v0,a0,9d002428 <_vfprintf_cdnopuxX+0x628>
9d001f1c:	26730001 	addiu	s3,s3,1
9d001f20:	2844006d 	slti	a0,v0,109
9d001f24:	1080004a 	beqz	a0,9d002050 <_vfprintf_cdnopuxX+0x250>
9d001f28:	24040073 	li	a0,115
9d001f2c:	24040063 	li	a0,99
9d001f30:	10440155 	beq	v0,a0,9d002488 <_vfprintf_cdnopuxX+0x688>
9d001f34:	28440064 	slti	a0,v0,100
9d001f38:	50800129 	beqzl	a0,9d0023e0 <_vfprintf_cdnopuxX+0x5e0>
9d001f3c:	24040064 	li	a0,100
9d001f40:	1440016f 	bnez	v0,9d002500 <_vfprintf_cdnopuxX+0x700>
9d001f44:	24040058 	li	a0,88
9d001f48:	8fbf0054 	lw	ra,84(sp)
9d001f4c:	02401021 	move	v0,s2
9d001f50:	8fbe0050 	lw	s8,80(sp)
9d001f54:	8fb7004c 	lw	s7,76(sp)
9d001f58:	8fb60048 	lw	s6,72(sp)
9d001f5c:	8fb50044 	lw	s5,68(sp)
9d001f60:	8fb40040 	lw	s4,64(sp)
9d001f64:	8fb3003c 	lw	s3,60(sp)
9d001f68:	8fb20038 	lw	s2,56(sp)
9d001f6c:	8fb10034 	lw	s1,52(sp)
9d001f70:	8fb00030 	lw	s0,48(sp)
9d001f74:	03e00008 	jr	ra
9d001f78:	27bd0058 	addiu	sp,sp,88
9d001f7c:	82620000 	lb	v0,0(s3)
9d001f80:	2404002a 	li	a0,42
9d001f84:	10440226 	beq	v0,a0,9d002820 <_vfprintf_cdnopuxX+0xa20>
9d001f88:	34634000 	ori	v1,v1,0x4000
9d001f8c:	3c059d00 	lui	a1,0x9d00
9d001f90:	24a56c44 	addiu	a1,a1,27716
9d001f94:	00a22021 	addu	a0,a1,v0
9d001f98:	90840001 	lbu	a0,1(a0)
9d001f9c:	30840004 	andi	a0,a0,0x4
9d001fa0:	1080ffda 	beqz	a0,9d001f0c <_vfprintf_cdnopuxX+0x10c>
9d001fa4:	00008021 	move	s0,zero
9d001fa8:	00102040 	sll	a0,s0,0x1
9d001fac:	001080c0 	sll	s0,s0,0x3
9d001fb0:	00908021 	addu	s0,a0,s0
9d001fb4:	26730001 	addiu	s3,s3,1
9d001fb8:	02028021 	addu	s0,s0,v0
9d001fbc:	3c059d00 	lui	a1,0x9d00
9d001fc0:	82620000 	lb	v0,0(s3)
9d001fc4:	24a56c44 	addiu	a1,a1,27716
9d001fc8:	00a22021 	addu	a0,a1,v0
9d001fcc:	90840001 	lbu	a0,1(a0)
9d001fd0:	30840004 	andi	a0,a0,0x4
9d001fd4:	1480fff4 	bnez	a0,9d001fa8 <_vfprintf_cdnopuxX+0x1a8>
9d001fd8:	2610ffd0 	addiu	s0,s0,-48
9d001fdc:	0b4007c5 	j	9d001f14 <_vfprintf_cdnopuxX+0x114>
9d001fe0:	2404006c 	li	a0,108
9d001fe4:	5448ffac 	bnel	v0,t0,9d001e98 <_vfprintf_cdnopuxX+0x98>
9d001fe8:	30640002 	andi	a0,v1,0x2
9d001fec:	34630004 	ori	v1,v1,0x4
9d001ff0:	24840001 	addiu	a0,a0,1
9d001ff4:	8082ffff 	lb	v0,-1(a0)
9d001ff8:	1446ff9f 	bne	v0,a2,9d001e78 <_vfprintf_cdnopuxX+0x78>
9d001ffc:	2493ffff 	addiu	s3,a0,-1
9d002000:	34630008 	ori	v1,v1,0x8
9d002004:	0b4007fd 	j	9d001ff4 <_vfprintf_cdnopuxX+0x1f4>
9d002008:	24840001 	addiu	a0,a0,1
9d00200c:	0f401a2d 	jal	9d0068b4 <.LFE0>
9d002010:	02c02821 	move	a1,s6
9d002014:	2403ffff 	li	v1,-1
9d002018:	1043ff88 	beq	v0,v1,9d001e3c <_vfprintf_cdnopuxX+0x3c>
9d00201c:	02009821 	move	s3,s0
9d002020:	0b40078f 	j	9d001e3c <_vfprintf_cdnopuxX+0x3c>
9d002024:	26520001 	addiu	s2,s2,1
9d002028:	0b4007fd 	j	9d001ff4 <_vfprintf_cdnopuxX+0x1f4>
9d00202c:	24840001 	addiu	a0,a0,1
9d002030:	0b4007fd 	j	9d001ff4 <_vfprintf_cdnopuxX+0x1f4>
9d002034:	24840001 	addiu	a0,a0,1
9d002038:	104400ef 	beq	v0,a0,9d0023f8 <_vfprintf_cdnopuxX+0x5f8>
9d00203c:	2404002e 	li	a0,46
9d002040:	1444ffb2 	bne	v0,a0,9d001f0c <_vfprintf_cdnopuxX+0x10c>
9d002044:	00004021 	move	t0,zero
9d002048:	0b4007df 	j	9d001f7c <_vfprintf_cdnopuxX+0x17c>
9d00204c:	26730001 	addiu	s3,s3,1
9d002050:	104400fd 	beq	v0,a0,9d002448 <_vfprintf_cdnopuxX+0x648>
9d002054:	28440074 	slti	a0,v0,116
9d002058:	108000d9 	beqz	a0,9d0023c0 <_vfprintf_cdnopuxX+0x5c0>
9d00205c:	24040075 	li	a0,117
9d002060:	2404006f 	li	a0,111
9d002064:	10440039 	beq	v0,a0,9d00214c <_vfprintf_cdnopuxX+0x34c>
9d002068:	24040070 	li	a0,112
9d00206c:	50440127 	beql	v0,a0,9d00250c <_vfprintf_cdnopuxX+0x70c>
9d002070:	34630020 	ori	v1,v1,0x20
9d002074:	27b70010 	addiu	s7,sp,16
9d002078:	24110001 	li	s1,1
9d00207c:	12000004 	beqz	s0,9d002090 <_vfprintf_cdnopuxX+0x290>
9d002080:	0228102b 	sltu	v0,s1,t0
9d002084:	0211102b 	sltu	v0,s0,s1
9d002088:	0202880b 	movn	s1,s0,v0
9d00208c:	0228102b 	sltu	v0,s1,t0
9d002090:	10400002 	beqz	v0,9d00209c <_vfprintf_cdnopuxX+0x29c>
9d002094:	00008021 	move	s0,zero
9d002098:	01118023 	subu	s0,t0,s1
9d00209c:	30750008 	andi	s5,v1,0x8
9d0020a0:	16a0000e 	bnez	s5,9d0020dc <_vfprintf_cdnopuxX+0x2dc>
9d0020a4:	2414ffff 	li	s4,-1
9d0020a8:	2610ffff 	addiu	s0,s0,-1
9d0020ac:	24040020 	li	a0,32
9d0020b0:	12140009 	beq	s0,s4,9d0020d8 <_vfprintf_cdnopuxX+0x2d8>
9d0020b4:	02c02821 	move	a1,s6
9d0020b8:	0f401a2d 	jal	9d0068b4 <.LFE0>
9d0020bc:	00000000 	nop
9d0020c0:	1054fff9 	beq	v0,s4,9d0020a8 <_vfprintf_cdnopuxX+0x2a8>
9d0020c4:	24040020 	li	a0,32
9d0020c8:	2610ffff 	addiu	s0,s0,-1
9d0020cc:	26520001 	addiu	s2,s2,1
9d0020d0:	1614fff9 	bne	s0,s4,9d0020b8 <_vfprintf_cdnopuxX+0x2b8>
9d0020d4:	02c02821 	move	a1,s6
9d0020d8:	2414ffff 	li	s4,-1
9d0020dc:	2631ffff 	addiu	s1,s1,-1
9d0020e0:	12340009 	beq	s1,s4,9d002108 <_vfprintf_cdnopuxX+0x308>
9d0020e4:	02c02821 	move	a1,s6
9d0020e8:	82e40000 	lb	a0,0(s7)
9d0020ec:	0f401a2d 	jal	9d0068b4 <.LFE0>
9d0020f0:	26f70001 	addiu	s7,s7,1
9d0020f4:	1054fffa 	beq	v0,s4,9d0020e0 <_vfprintf_cdnopuxX+0x2e0>
9d0020f8:	2631ffff 	addiu	s1,s1,-1
9d0020fc:	26520001 	addiu	s2,s2,1
9d002100:	1634fff9 	bne	s1,s4,9d0020e8 <_vfprintf_cdnopuxX+0x2e8>
9d002104:	02c02821 	move	a1,s6
9d002108:	52a0ff4d 	beqzl	s5,9d001e40 <_vfprintf_cdnopuxX+0x40>
9d00210c:	82640000 	lb	a0,0(s3)
9d002110:	2411ffff 	li	s1,-1
9d002114:	2610ffff 	addiu	s0,s0,-1
9d002118:	24040020 	li	a0,32
9d00211c:	1211ff47 	beq	s0,s1,9d001e3c <_vfprintf_cdnopuxX+0x3c>
9d002120:	02c02821 	move	a1,s6
9d002124:	0f401a2d 	jal	9d0068b4 <.LFE0>
9d002128:	00000000 	nop
9d00212c:	1051fff9 	beq	v0,s1,9d002114 <_vfprintf_cdnopuxX+0x314>
9d002130:	24040020 	li	a0,32
9d002134:	2610ffff 	addiu	s0,s0,-1
9d002138:	26520001 	addiu	s2,s2,1
9d00213c:	1611fff9 	bne	s0,s1,9d002124 <_vfprintf_cdnopuxX+0x324>
9d002140:	02c02821 	move	a1,s6
9d002144:	0b400790 	j	9d001e40 <_vfprintf_cdnopuxX+0x40>
9d002148:	82640000 	lb	a0,0(s3)
9d00214c:	34630040 	ori	v1,v1,0x40
9d002150:	306200c0 	andi	v0,v1,0xc0
9d002154:	14400090 	bnez	v0,9d002398 <_vfprintf_cdnopuxX+0x598>
9d002158:	7c031620 	seh	v0,v1
9d00215c:	044001c0 	bltz	v0,9d002860 <_vfprintf_cdnopuxX+0xa60>
9d002160:	8fa70060 	lw	a3,96(sp)
9d002164:	30620010 	andi	v0,v1,0x10
9d002168:	104000de 	beqz	v0,9d0024e4 <_vfprintf_cdnopuxX+0x6e4>
9d00216c:	8fa50060 	lw	a1,96(sp)
9d002170:	8fa20060 	lw	v0,96(sp)
9d002174:	8c440000 	lw	a0,0(v0)
9d002178:	24420004 	addiu	v0,v0,4
9d00217c:	afa20060 	sw	v0,96(sp)
9d002180:	000417c3 	sra	v0,a0,0x1f
9d002184:	0080b821 	move	s7,a0
9d002188:	0040f021 	move	s8,v0
9d00218c:	04410005 	bgez	v0,9d0021a4 <_vfprintf_cdnopuxX+0x3a4>
9d002190:	00021023 	negu	v0,v0
9d002194:	0004b823 	negu	s7,a0
9d002198:	0017202b 	sltu	a0,zero,s7
9d00219c:	34630003 	ori	v1,v1,0x3
9d0021a0:	0044f023 	subu	s8,v0,a0
9d0021a4:	16000003 	bnez	s0,9d0021b4 <_vfprintf_cdnopuxX+0x3b4>
9d0021a8:	307500c0 	andi	s5,v1,0xc0
9d0021ac:	02fe8025 	or	s0,s7,s8
9d0021b0:	2e100001 	sltiu	s0,s0,1
9d0021b4:	24020040 	li	v0,64
9d0021b8:	12a20145 	beq	s5,v0,9d0026d0 <_vfprintf_cdnopuxX+0x8d0>
9d0021bc:	2aa20041 	slti	v0,s5,65
9d0021c0:	10400122 	beqz	v0,9d00264c <_vfprintf_cdnopuxX+0x84c>
9d0021c4:	24020080 	li	v0,128
9d0021c8:	16a00015 	bnez	s5,9d002220 <_vfprintf_cdnopuxX+0x420>
9d0021cc:	83a20010 	lb	v0,16(sp)
9d0021d0:	24020001 	li	v0,1
9d0021d4:	13c001bc 	beqz	s8,9d0028c8 <_vfprintf_cdnopuxX+0xac8>
9d0021d8:	a3a20010 	sb	v0,16(sp)
9d0021dc:	3c049d00 	lui	a0,0x9d00
9d0021e0:	24847068 	addiu	a0,a0,28776
9d0021e4:	24070002 	li	a3,2
9d0021e8:	24020002 	li	v0,2
9d0021ec:	0b40087e 	j	9d0021f8 <_vfprintf_cdnopuxX+0x3f8>
9d0021f0:	24090014 	li	t1,20
9d0021f4:	00403821 	move	a3,v0
9d0021f8:	8c850004 	lw	a1,4(a0)
9d0021fc:	24420001 	addiu	v0,v0,1
9d002200:	03c5302b 	sltu	a2,s8,a1
9d002204:	14c001a3 	bnez	a2,9d002894 <_vfprintf_cdnopuxX+0xa94>
9d002208:	7c021420 	seb	v0,v0
9d00220c:	50be019e 	beql	a1,s8,9d002888 <_vfprintf_cdnopuxX+0xa88>
9d002210:	8c850000 	lw	a1,0(a0)
9d002214:	1449fff7 	bne	v0,t1,9d0021f4 <_vfprintf_cdnopuxX+0x3f4>
9d002218:	24840008 	addiu	a0,a0,8
9d00221c:	a3a20010 	sb	v0,16(sp)
9d002220:	0050202a 	slt	a0,v0,s0
9d002224:	10800105 	beqz	a0,9d00263c <_vfprintf_cdnopuxX+0x83c>
9d002228:	0202202a 	slt	a0,s0,v0
9d00222c:	7c101420 	seb	v0,s0
9d002230:	a3a20010 	sb	v0,16(sp)
9d002234:	11000005 	beqz	t0,9d00224c <_vfprintf_cdnopuxX+0x44c>
9d002238:	30644000 	andi	a0,v1,0x4000
9d00223c:	30640003 	andi	a0,v1,0x3
9d002240:	54800001 	bnezl	a0,9d002248 <_vfprintf_cdnopuxX+0x448>
9d002244:	2508ffff 	addiu	t0,t0,-1
9d002248:	30644000 	andi	a0,v1,0x4000
9d00224c:	10800006 	beqz	a0,9d002268 <_vfprintf_cdnopuxX+0x468>
9d002250:	0048202a 	slt	a0,v0,t0
9d002254:	0208202a 	slt	a0,s0,t0
9d002258:	50800002 	beqzl	a0,9d002264 <_vfprintf_cdnopuxX+0x464>
9d00225c:	00004021 	move	t0,zero
9d002260:	01104023 	subu	t0,t0,s0
9d002264:	0048202a 	slt	a0,v0,t0
9d002268:	50800003 	beqzl	a0,9d002278 <_vfprintf_cdnopuxX+0x478>
9d00226c:	afa00018 	sw	zero,24(sp)
9d002270:	01021023 	subu	v0,t0,v0
9d002274:	afa20018 	sw	v0,24(sp)
9d002278:	30620004 	andi	v0,v1,0x4
9d00227c:	104000dd 	beqz	v0,9d0025f4 <_vfprintf_cdnopuxX+0x7f4>
9d002280:	8fa40018 	lw	a0,24(sp)
9d002284:	30620002 	andi	v0,v1,0x2
9d002288:	1040013b 	beqz	v0,9d002778 <_vfprintf_cdnopuxX+0x978>
9d00228c:	30620001 	andi	v0,v1,0x1
9d002290:	10400002 	beqz	v0,9d00229c <_vfprintf_cdnopuxX+0x49c>
9d002294:	2404002b 	li	a0,43
9d002298:	2404002d 	li	a0,45
9d00229c:	02c02821 	move	a1,s6
9d0022a0:	0f401a2d 	jal	9d0068b4 <.LFE0>
9d0022a4:	afa3002c 	sw	v1,44(sp)
9d0022a8:	2404ffff 	li	a0,-1
9d0022ac:	10440002 	beq	v0,a0,9d0022b8 <_vfprintf_cdnopuxX+0x4b8>
9d0022b0:	8fa3002c 	lw	v1,44(sp)
9d0022b4:	26520001 	addiu	s2,s2,1
9d0022b8:	8fa20018 	lw	v0,24(sp)
9d0022bc:	54400132 	bnezl	v0,9d002788 <_vfprintf_cdnopuxX+0x988>
9d0022c0:	2411ffff 	li	s1,-1
9d0022c4:	30640008 	andi	a0,v1,0x8
9d0022c8:	afa40028 	sw	a0,40(sp)
9d0022cc:	2610ffff 	addiu	s0,s0,-1
9d0022d0:	00101040 	sll	v0,s0,0x1
9d0022d4:	3c079d00 	lui	a3,0x9d00
9d0022d8:	0010a0c0 	sll	s4,s0,0x3
9d0022dc:	24e77058 	addiu	a3,a3,28760
9d0022e0:	00108880 	sll	s1,s0,0x2
9d0022e4:	2aa40041 	slti	a0,s5,65
9d0022e8:	00508021 	addu	s0,v0,s0
9d0022ec:	30630020 	andi	v1,v1,0x20
9d0022f0:	001e1040 	sll	v0,s8,0x1
9d0022f4:	00f4a021 	addu	s4,a3,s4
9d0022f8:	afa20020 	sw	v0,32(sp)
9d0022fc:	afa4001c 	sw	a0,28(sp)
9d002300:	0b4008d9 	j	9d002364 <_vfprintf_cdnopuxX+0x564>
9d002304:	afa30024 	sw	v1,36(sp)
9d002308:	16a0000e 	bnez	s5,9d002344 <_vfprintf_cdnopuxX+0x544>
9d00230c:	83a40010 	lb	a0,16(sp)
9d002310:	8e860000 	lw	a2,0(s4)
9d002314:	8e870004 	lw	a3,4(s4)
9d002318:	02e02021 	move	a0,s7
9d00231c:	0f400f4e 	jal	9d003d38 <__udivdi3>
9d002320:	03c02821 	move	a1,s8
9d002324:	00402021 	move	a0,v0
9d002328:	00602821 	move	a1,v1
9d00232c:	2406000a 	li	a2,10
9d002330:	0f401065 	jal	9d004194 <__umoddi3>
9d002334:	00003821 	move	a3,zero
9d002338:	24420030 	addiu	v0,v0,48
9d00233c:	7c022420 	seb	a0,v0
9d002340:	a3a40010 	sb	a0,16(sp)
9d002344:	0f401a2d 	jal	9d0068b4 <.LFE0>
9d002348:	02c02821 	move	a1,s6
9d00234c:	2403ffff 	li	v1,-1
9d002350:	54430001 	bnel	v0,v1,9d002358 <_vfprintf_cdnopuxX+0x558>
9d002354:	26520001 	addiu	s2,s2,1
9d002358:	2694fff8 	addiu	s4,s4,-8
9d00235c:	2631fffc 	addiu	s1,s1,-4
9d002360:	2610fffd 	addiu	s0,s0,-3
9d002364:	2402fffd 	li	v0,-3
9d002368:	1202008f 	beq	s0,v0,9d0025a8 <_vfprintf_cdnopuxX+0x7a8>
9d00236c:	24020040 	li	v0,64
9d002370:	12a2007f 	beq	s5,v0,9d002570 <_vfprintf_cdnopuxX+0x770>
9d002374:	8fa5001c 	lw	a1,28(sp)
9d002378:	14a0ffe3 	bnez	a1,9d002308 <_vfprintf_cdnopuxX+0x508>
9d00237c:	24020080 	li	v0,128
9d002380:	12a20069 	beq	s5,v0,9d002528 <_vfprintf_cdnopuxX+0x728>
9d002384:	240200c0 	li	v0,192
9d002388:	12a2ffe1 	beq	s5,v0,9d002310 <_vfprintf_cdnopuxX+0x510>
9d00238c:	83a40010 	lb	a0,16(sp)
9d002390:	0b4008d1 	j	9d002344 <_vfprintf_cdnopuxX+0x544>
9d002394:	00000000 	nop
9d002398:	04400128 	bltz	v0,9d00283c <_vfprintf_cdnopuxX+0xa3c>
9d00239c:	30620010 	andi	v0,v1,0x10
9d0023a0:	1040004b 	beqz	v0,9d0024d0 <_vfprintf_cdnopuxX+0x6d0>
9d0023a4:	8fa70060 	lw	a3,96(sp)
9d0023a8:	8fa50060 	lw	a1,96(sp)
9d0023ac:	0000f021 	move	s8,zero
9d0023b0:	8cb70000 	lw	s7,0(a1)
9d0023b4:	24a50004 	addiu	a1,a1,4
9d0023b8:	0b400869 	j	9d0021a4 <_vfprintf_cdnopuxX+0x3a4>
9d0023bc:	afa50060 	sw	a1,96(sp)
9d0023c0:	10440005 	beq	v0,a0,9d0023d8 <_vfprintf_cdnopuxX+0x5d8>
9d0023c4:	24040078 	li	a0,120
9d0023c8:	1444ff2b 	bne	v0,a0,9d002078 <_vfprintf_cdnopuxX+0x278>
9d0023cc:	27b70010 	addiu	s7,sp,16
9d0023d0:	0b400854 	j	9d002150 <_vfprintf_cdnopuxX+0x350>
9d0023d4:	34630080 	ori	v1,v1,0x80
9d0023d8:	0b400854 	j	9d002150 <_vfprintf_cdnopuxX+0x350>
9d0023dc:	346300c0 	ori	v1,v1,0xc0
9d0023e0:	1044ff5b 	beq	v0,a0,9d002150 <_vfprintf_cdnopuxX+0x350>
9d0023e4:	24040069 	li	a0,105
9d0023e8:	1044ff59 	beq	v0,a0,9d002150 <_vfprintf_cdnopuxX+0x350>
9d0023ec:	27b70010 	addiu	s7,sp,16
9d0023f0:	0b40081f 	j	9d00207c <_vfprintf_cdnopuxX+0x27c>
9d0023f4:	24110001 	li	s1,1
9d0023f8:	8fa20060 	lw	v0,96(sp)
9d0023fc:	8fa40060 	lw	a0,96(sp)
9d002400:	26730001 	addiu	s3,s3,1
9d002404:	8c480000 	lw	t0,0(v0)
9d002408:	24840004 	addiu	a0,a0,4
9d00240c:	82620000 	lb	v0,0(s3)
9d002410:	afa40060 	sw	a0,96(sp)
9d002414:	2404002e 	li	a0,46
9d002418:	1444febd 	bne	v0,a0,9d001f10 <_vfprintf_cdnopuxX+0x110>
9d00241c:	00008021 	move	s0,zero
9d002420:	0b4007df 	j	9d001f7c <_vfprintf_cdnopuxX+0x17c>
9d002424:	26730001 	addiu	s3,s3,1
9d002428:	30620010 	andi	v0,v1,0x10
9d00242c:	54400002 	bnezl	v0,9d002438 <_vfprintf_cdnopuxX+0x638>
9d002430:	24028000 	li	v0,-32768
9d002434:	24020010 	li	v0,16
9d002438:	00431825 	or	v1,v0,v1
9d00243c:	3063ffff 	andi	v1,v1,0xffff
9d002440:	0b4007c5 	j	9d001f14 <_vfprintf_cdnopuxX+0x114>
9d002444:	82620000 	lb	v0,0(s3)
9d002448:	8fa70060 	lw	a3,96(sp)
9d00244c:	8ce40000 	lw	a0,0(a3)
9d002450:	24e50004 	addiu	a1,a3,4
9d002454:	10800116 	beqz	a0,9d0028b0 <_vfprintf_cdnopuxX+0xab0>
9d002458:	0080b821 	move	s7,a0
9d00245c:	80820000 	lb	v0,0(a0)
9d002460:	50400117 	beqzl	v0,9d0028c0 <_vfprintf_cdnopuxX+0xac0>
9d002464:	afa50060 	sw	a1,96(sp)
9d002468:	00008821 	move	s1,zero
9d00246c:	26310001 	addiu	s1,s1,1
9d002470:	00911021 	addu	v0,a0,s1
9d002474:	80420000 	lb	v0,0(v0)
9d002478:	5440fffd 	bnezl	v0,9d002470 <_vfprintf_cdnopuxX+0x670>
9d00247c:	26310001 	addiu	s1,s1,1
9d002480:	0b40081f 	j	9d00207c <_vfprintf_cdnopuxX+0x27c>
9d002484:	afa50060 	sw	a1,96(sp)
9d002488:	8fa40060 	lw	a0,96(sp)
9d00248c:	30650010 	andi	a1,v1,0x10
9d002490:	80820001 	lb	v0,1(a0)
9d002494:	8c860000 	lw	a2,0(a0)
9d002498:	24840004 	addiu	a0,a0,4
9d00249c:	10a0001d 	beqz	a1,9d002514 <_vfprintf_cdnopuxX+0x714>
9d0024a0:	a3a20010 	sb	v0,16(sp)
9d0024a4:	5040001c 	beqzl	v0,9d002518 <_vfprintf_cdnopuxX+0x718>
9d0024a8:	a3a60014 	sb	a2,20(sp)
9d0024ac:	2405ffff 	li	a1,-1
9d0024b0:	50450019 	beql	v0,a1,9d002518 <_vfprintf_cdnopuxX+0x718>
9d0024b4:	a3a60014 	sb	a2,20(sp)
9d0024b8:	a3a20014 	sb	v0,20(sp)
9d0024bc:	a3a60015 	sb	a2,21(sp)
9d0024c0:	24110002 	li	s1,2
9d0024c4:	27b70014 	addiu	s7,sp,20
9d0024c8:	0b40081f 	j	9d00207c <_vfprintf_cdnopuxX+0x27c>
9d0024cc:	afa40060 	sw	a0,96(sp)
9d0024d0:	0000f021 	move	s8,zero
9d0024d4:	8cf70000 	lw	s7,0(a3)
9d0024d8:	24e70004 	addiu	a3,a3,4
9d0024dc:	0b400869 	j	9d0021a4 <_vfprintf_cdnopuxX+0x3a4>
9d0024e0:	afa70060 	sw	a3,96(sp)
9d0024e4:	8ca40000 	lw	a0,0(a1)
9d0024e8:	24a50004 	addiu	a1,a1,4
9d0024ec:	000417c3 	sra	v0,a0,0x1f
9d0024f0:	afa50060 	sw	a1,96(sp)
9d0024f4:	0080b821 	move	s7,a0
9d0024f8:	0b400863 	j	9d00218c <_vfprintf_cdnopuxX+0x38c>
9d0024fc:	0040f021 	move	s8,v0
9d002500:	1444fedd 	bne	v0,a0,9d002078 <_vfprintf_cdnopuxX+0x278>
9d002504:	27b70010 	addiu	s7,sp,16
9d002508:	34630020 	ori	v1,v1,0x20
9d00250c:	0b400854 	j	9d002150 <_vfprintf_cdnopuxX+0x350>
9d002510:	34630080 	ori	v1,v1,0x80
9d002514:	a3a60014 	sb	a2,20(sp)
9d002518:	24110001 	li	s1,1
9d00251c:	27b70014 	addiu	s7,sp,20
9d002520:	0b40081f 	j	9d00207c <_vfprintf_cdnopuxX+0x27c>
9d002524:	afa40060 	sw	a0,96(sp)
9d002528:	8fa70024 	lw	a3,36(sp)
9d00252c:	50e0001c 	beqzl	a3,9d0025a0 <_vfprintf_cdnopuxX+0x7a0>
9d002530:	3c049d00 	lui	a0,0x9d00
9d002534:	3c029d00 	lui	v0,0x9d00
9d002538:	24437030 	addiu	v1,v0,28720
9d00253c:	8fa50020 	lw	a1,32(sp)
9d002540:	00112027 	nor	a0,zero,s1
9d002544:	00852004 	sllv	a0,a1,a0
9d002548:	02371006 	srlv	v0,s7,s1
9d00254c:	00821025 	or	v0,a0,v0
9d002550:	32250020 	andi	a1,s1,0x20
9d002554:	023e2006 	srlv	a0,s8,s1
9d002558:	0085100b 	movn	v0,a0,a1
9d00255c:	3042000f 	andi	v0,v0,0xf
9d002560:	00621021 	addu	v0,v1,v0
9d002564:	80440000 	lb	a0,0(v0)
9d002568:	0b4008d1 	j	9d002344 <_vfprintf_cdnopuxX+0x544>
9d00256c:	a3a40010 	sb	a0,16(sp)
9d002570:	8fa70020 	lw	a3,32(sp)
9d002574:	00101027 	nor	v0,zero,s0
9d002578:	00471004 	sllv	v0,a3,v0
9d00257c:	02172006 	srlv	a0,s7,s0
9d002580:	00442025 	or	a0,v0,a0
9d002584:	32030020 	andi	v1,s0,0x20
9d002588:	021e1006 	srlv	v0,s8,s0
9d00258c:	0043200b 	movn	a0,v0,v1
9d002590:	30840007 	andi	a0,a0,0x7
9d002594:	24840030 	addiu	a0,a0,48
9d002598:	0b4008d1 	j	9d002344 <_vfprintf_cdnopuxX+0x544>
9d00259c:	a3a40010 	sb	a0,16(sp)
9d0025a0:	0b40094f 	j	9d00253c <_vfprintf_cdnopuxX+0x73c>
9d0025a4:	24837044 	addiu	v1,a0,28740
9d0025a8:	8fa20028 	lw	v0,40(sp)
9d0025ac:	5040fe24 	beqzl	v0,9d001e40 <_vfprintf_cdnopuxX+0x40>
9d0025b0:	82640000 	lb	a0,0(s3)
9d0025b4:	8fa30018 	lw	v1,24(sp)
9d0025b8:	1860fe20 	blez	v1,9d001e3c <_vfprintf_cdnopuxX+0x3c>
9d0025bc:	2410ffff 	li	s0,-1
9d0025c0:	24040020 	li	a0,32
9d0025c4:	0f401a2d 	jal	9d0068b4 <.LFE0>
9d0025c8:	02c02821 	move	a1,s6
9d0025cc:	8fa40018 	lw	a0,24(sp)
9d0025d0:	2484ffff 	addiu	a0,a0,-1
9d0025d4:	10500002 	beq	v0,s0,9d0025e0 <_vfprintf_cdnopuxX+0x7e0>
9d0025d8:	afa40018 	sw	a0,24(sp)
9d0025dc:	26520001 	addiu	s2,s2,1
9d0025e0:	8fa50018 	lw	a1,24(sp)
9d0025e4:	54a0fff7 	bnezl	a1,9d0025c4 <_vfprintf_cdnopuxX+0x7c4>
9d0025e8:	24040020 	li	a0,32
9d0025ec:	0b400790 	j	9d001e40 <_vfprintf_cdnopuxX+0x40>
9d0025f0:	82640000 	lb	a0,0(s3)
9d0025f4:	14800078 	bnez	a0,9d0027d8 <_vfprintf_cdnopuxX+0x9d8>
9d0025f8:	30670008 	andi	a3,v1,0x8
9d0025fc:	30650008 	andi	a1,v1,0x8
9d002600:	afa50028 	sw	a1,40(sp)
9d002604:	30620002 	andi	v0,v1,0x2
9d002608:	1040006f 	beqz	v0,9d0027c8 <_vfprintf_cdnopuxX+0x9c8>
9d00260c:	30620001 	andi	v0,v1,0x1
9d002610:	10400002 	beqz	v0,9d00261c <_vfprintf_cdnopuxX+0x81c>
9d002614:	2404002b 	li	a0,43
9d002618:	2404002d 	li	a0,45
9d00261c:	02c02821 	move	a1,s6
9d002620:	0f401a2d 	jal	9d0068b4 <.LFE0>
9d002624:	afa3002c 	sw	v1,44(sp)
9d002628:	2404ffff 	li	a0,-1
9d00262c:	1044ff27 	beq	v0,a0,9d0022cc <_vfprintf_cdnopuxX+0x4cc>
9d002630:	8fa3002c 	lw	v1,44(sp)
9d002634:	0b4008b3 	j	9d0022cc <_vfprintf_cdnopuxX+0x4cc>
9d002638:	26520001 	addiu	s2,s2,1
9d00263c:	5480fefd 	bnezl	a0,9d002234 <_vfprintf_cdnopuxX+0x434>
9d002640:	00408021 	move	s0,v0
9d002644:	0b40088d 	j	9d002234 <_vfprintf_cdnopuxX+0x434>
9d002648:	00000000 	nop
9d00264c:	12a20005 	beq	s5,v0,9d002664 <_vfprintf_cdnopuxX+0x864>
9d002650:	240200c0 	li	v0,192
9d002654:	12a2fede 	beq	s5,v0,9d0021d0 <_vfprintf_cdnopuxX+0x3d0>
9d002658:	83a20010 	lb	v0,16(sp)
9d00265c:	0b400889 	j	9d002224 <_vfprintf_cdnopuxX+0x424>
9d002660:	0050202a 	slt	a0,v0,s0
9d002664:	24020001 	li	v0,1
9d002668:	13c0009c 	beqz	s8,9d0028dc <_vfprintf_cdnopuxX+0xadc>
9d00266c:	a3a20010 	sb	v0,16(sp)
9d002670:	24020002 	li	v0,2
9d002674:	240b0002 	li	t3,2
9d002678:	24040100 	li	a0,256
9d00267c:	00002821 	move	a1,zero
9d002680:	0b4009a4 	j	9d002690 <_vfprintf_cdnopuxX+0x890>
9d002684:	240c0010 	li	t4,16
9d002688:	00e02821 	move	a1,a3
9d00268c:	00405821 	move	t3,v0
9d002690:	00053100 	sll	a2,a1,0x4
9d002694:	00044900 	sll	t1,a0,0x4
9d002698:	00045702 	srl	t2,a0,0x1c
9d00269c:	01465025 	or	t2,t2,a2
9d0026a0:	01203021 	move	a2,t1
9d0026a4:	03c5482b 	sltu	t1,s8,a1
9d0026a8:	256b0001 	addiu	t3,t3,1
9d0026ac:	1520fedb 	bnez	t1,9d00221c <_vfprintf_cdnopuxX+0x41c>
9d0026b0:	01403821 	move	a3,t2
9d0026b4:	13c5007a 	beq	s8,a1,9d0028a0 <_vfprintf_cdnopuxX+0xaa0>
9d0026b8:	02e4202b 	sltu	a0,s7,a0
9d0026bc:	7c0b1420 	seb	v0,t3
9d0026c0:	144cfff1 	bne	v0,t4,9d002688 <_vfprintf_cdnopuxX+0x888>
9d0026c4:	00c02021 	move	a0,a2
9d0026c8:	0b400888 	j	9d002220 <_vfprintf_cdnopuxX+0x420>
9d0026cc:	a3ac0010 	sb	t4,16(sp)
9d0026d0:	24020001 	li	v0,1
9d0026d4:	13c00086 	beqz	s8,9d0028f0 <_vfprintf_cdnopuxX+0xaf0>
9d0026d8:	a3a20010 	sb	v0,16(sp)
9d0026dc:	24040040 	li	a0,64
9d0026e0:	00002821 	move	a1,zero
9d0026e4:	000530c0 	sll	a2,a1,0x3
9d0026e8:	000448c0 	sll	t1,a0,0x3
9d0026ec:	24020002 	li	v0,2
9d0026f0:	00045742 	srl	t2,a0,0x1d
9d0026f4:	01465025 	or	t2,t2,a2
9d0026f8:	24420001 	addiu	v0,v0,1
9d0026fc:	01203021 	move	a2,t1
9d002700:	03c5482b 	sltu	t1,s8,a1
9d002704:	240b0002 	li	t3,2
9d002708:	240c0015 	li	t4,21
9d00270c:	7c021420 	seb	v0,v0
9d002710:	15200011 	bnez	t1,9d002758 <_vfprintf_cdnopuxX+0x958>
9d002714:	01403821 	move	a3,t2
9d002718:	13c50012 	beq	s8,a1,9d002764 <_vfprintf_cdnopuxX+0x964>
9d00271c:	02e4202b 	sltu	a0,s7,a0
9d002720:	104cfebe 	beq	v0,t4,9d00221c <_vfprintf_cdnopuxX+0x41c>
9d002724:	00c02021 	move	a0,a2
9d002728:	00e02821 	move	a1,a3
9d00272c:	000530c0 	sll	a2,a1,0x3
9d002730:	000448c0 	sll	t1,a0,0x3
9d002734:	00045742 	srl	t2,a0,0x1d
9d002738:	01465025 	or	t2,t2,a2
9d00273c:	00405821 	move	t3,v0
9d002740:	01203021 	move	a2,t1
9d002744:	24420001 	addiu	v0,v0,1
9d002748:	03c5482b 	sltu	t1,s8,a1
9d00274c:	7c021420 	seb	v0,v0
9d002750:	1120fff1 	beqz	t1,9d002718 <_vfprintf_cdnopuxX+0x918>
9d002754:	01403821 	move	a3,t2
9d002758:	a3ab0010 	sb	t3,16(sp)
9d00275c:	0b400888 	j	9d002220 <_vfprintf_cdnopuxX+0x420>
9d002760:	01601021 	move	v0,t3
9d002764:	1080ffee 	beqz	a0,9d002720 <_vfprintf_cdnopuxX+0x920>
9d002768:	00000000 	nop
9d00276c:	a3ab0010 	sb	t3,16(sp)
9d002770:	0b400888 	j	9d002220 <_vfprintf_cdnopuxX+0x420>
9d002774:	01601021 	move	v0,t3
9d002778:	1040fed0 	beqz	v0,9d0022bc <_vfprintf_cdnopuxX+0x4bc>
9d00277c:	8fa20018 	lw	v0,24(sp)
9d002780:	0b4008a7 	j	9d00229c <_vfprintf_cdnopuxX+0x49c>
9d002784:	24040020 	li	a0,32
9d002788:	02c02821 	move	a1,s6
9d00278c:	24040030 	li	a0,48
9d002790:	0f401a2d 	jal	9d0068b4 <.LFE0>
9d002794:	afa3002c 	sw	v1,44(sp)
9d002798:	8fa50018 	lw	a1,24(sp)
9d00279c:	8fa3002c 	lw	v1,44(sp)
9d0027a0:	24a5ffff 	addiu	a1,a1,-1
9d0027a4:	10510002 	beq	v0,s1,9d0027b0 <_vfprintf_cdnopuxX+0x9b0>
9d0027a8:	afa50018 	sw	a1,24(sp)
9d0027ac:	26520001 	addiu	s2,s2,1
9d0027b0:	8fa70018 	lw	a3,24(sp)
9d0027b4:	54e0fff5 	bnezl	a3,9d00278c <_vfprintf_cdnopuxX+0x98c>
9d0027b8:	02c02821 	move	a1,s6
9d0027bc:	30620008 	andi	v0,v1,0x8
9d0027c0:	0b4008b3 	j	9d0022cc <_vfprintf_cdnopuxX+0x4cc>
9d0027c4:	afa20028 	sw	v0,40(sp)
9d0027c8:	5040fec1 	beqzl	v0,9d0022d0 <_vfprintf_cdnopuxX+0x4d0>
9d0027cc:	2610ffff 	addiu	s0,s0,-1
9d0027d0:	0b400987 	j	9d00261c <_vfprintf_cdnopuxX+0x81c>
9d0027d4:	24040020 	li	a0,32
9d0027d8:	14e0ff8a 	bnez	a3,9d002604 <_vfprintf_cdnopuxX+0x804>
9d0027dc:	afa70028 	sw	a3,40(sp)
9d0027e0:	2411ffff 	li	s1,-1
9d0027e4:	24040020 	li	a0,32
9d0027e8:	02c02821 	move	a1,s6
9d0027ec:	0f401a2d 	jal	9d0068b4 <.LFE0>
9d0027f0:	afa3002c 	sw	v1,44(sp)
9d0027f4:	8fa40018 	lw	a0,24(sp)
9d0027f8:	8fa3002c 	lw	v1,44(sp)
9d0027fc:	2484ffff 	addiu	a0,a0,-1
9d002800:	10510002 	beq	v0,s1,9d00280c <_vfprintf_cdnopuxX+0xa0c>
9d002804:	afa40018 	sw	a0,24(sp)
9d002808:	26520001 	addiu	s2,s2,1
9d00280c:	8fa50018 	lw	a1,24(sp)
9d002810:	54a0fff5 	bnezl	a1,9d0027e8 <_vfprintf_cdnopuxX+0x9e8>
9d002814:	24040020 	li	a0,32
9d002818:	0b400982 	j	9d002608 <_vfprintf_cdnopuxX+0x808>
9d00281c:	30620002 	andi	v0,v1,0x2
9d002820:	8fa70060 	lw	a3,96(sp)
9d002824:	26730001 	addiu	s3,s3,1
9d002828:	8cf00000 	lw	s0,0(a3)
9d00282c:	24e70004 	addiu	a3,a3,4
9d002830:	82620000 	lb	v0,0(s3)
9d002834:	0b4007c4 	j	9d001f10 <_vfprintf_cdnopuxX+0x110>
9d002838:	afa70060 	sw	a3,96(sp)
9d00283c:	8fa70060 	lw	a3,96(sp)
9d002840:	2402fff8 	li	v0,-8
9d002844:	24e40007 	addiu	a0,a3,7
9d002848:	00821024 	and	v0,a0,v0
9d00284c:	24440008 	addiu	a0,v0,8
9d002850:	afa40060 	sw	a0,96(sp)
9d002854:	8c570000 	lw	s7,0(v0)
9d002858:	0b400869 	j	9d0021a4 <_vfprintf_cdnopuxX+0x3a4>
9d00285c:	8c5e0004 	lw	s8,4(v0)
9d002860:	2402fff8 	li	v0,-8
9d002864:	24e50007 	addiu	a1,a3,7
9d002868:	00a22824 	and	a1,a1,v0
9d00286c:	8ca40000 	lw	a0,0(a1)
9d002870:	8ca20004 	lw	v0,4(a1)
9d002874:	24a50008 	addiu	a1,a1,8
9d002878:	afa50060 	sw	a1,96(sp)
9d00287c:	0080b821 	move	s7,a0
9d002880:	0b400863 	j	9d00218c <_vfprintf_cdnopuxX+0x38c>
9d002884:	0040f021 	move	s8,v0
9d002888:	02e5282b 	sltu	a1,s7,a1
9d00288c:	10a0fe61 	beqz	a1,9d002214 <_vfprintf_cdnopuxX+0x414>
9d002890:	00000000 	nop
9d002894:	a3a70010 	sb	a3,16(sp)
9d002898:	0b400888 	j	9d002220 <_vfprintf_cdnopuxX+0x420>
9d00289c:	00e01021 	move	v0,a3
9d0028a0:	5080ff87 	beqzl	a0,9d0026c0 <_vfprintf_cdnopuxX+0x8c0>
9d0028a4:	7c0b1420 	seb	v0,t3
9d0028a8:	0b400888 	j	9d002220 <_vfprintf_cdnopuxX+0x420>
9d0028ac:	a3a20010 	sb	v0,16(sp)
9d0028b0:	3c179d00 	lui	s7,0x9d00
9d0028b4:	26f77028 	addiu	s7,s7,28712
9d0028b8:	0b400917 	j	9d00245c <_vfprintf_cdnopuxX+0x65c>
9d0028bc:	02e02021 	move	a0,s7
9d0028c0:	0b40081f 	j	9d00207c <_vfprintf_cdnopuxX+0x27c>
9d0028c4:	00008821 	move	s1,zero
9d0028c8:	2ee2000a 	sltiu	v0,s7,10
9d0028cc:	1040fe44 	beqz	v0,9d0021e0 <_vfprintf_cdnopuxX+0x3e0>
9d0028d0:	3c049d00 	lui	a0,0x9d00
9d0028d4:	0b400888 	j	9d002220 <_vfprintf_cdnopuxX+0x420>
9d0028d8:	24020001 	li	v0,1
9d0028dc:	2ee20010 	sltiu	v0,s7,16
9d0028e0:	5040ff64 	beqzl	v0,9d002674 <_vfprintf_cdnopuxX+0x874>
9d0028e4:	24020002 	li	v0,2
9d0028e8:	0b400888 	j	9d002220 <_vfprintf_cdnopuxX+0x420>
9d0028ec:	24020001 	li	v0,1
9d0028f0:	2ee20008 	sltiu	v0,s7,8
9d0028f4:	1040ff7a 	beqz	v0,9d0026e0 <_vfprintf_cdnopuxX+0x8e0>
9d0028f8:	24040040 	li	a0,64
9d0028fc:	0b400888 	j	9d002220 <_vfprintf_cdnopuxX+0x420>
9d002900:	24020001 	li	v0,1

Disassembly of section .text._vfscanf_fF:

9d002904 <_vfscanf_fF>:
9d002904:	27bdff70 	addiu	sp,sp,-144
9d002908:	afb1006c 	sw	s1,108(sp)
9d00290c:	afb00068 	sw	s0,104(sp)
9d002910:	3c119d00 	lui	s1,0x9d00
9d002914:	3c10a000 	lui	s0,0xa000
9d002918:	27a20010 	addiu	v0,sp,16
9d00291c:	afb70084 	sw	s7,132(sp)
9d002920:	afb5007c 	sw	s5,124(sp)
9d002924:	afb40078 	sw	s4,120(sp)
9d002928:	afb20070 	sw	s2,112(sp)
9d00292c:	afbf008c 	sw	ra,140(sp)
9d002930:	afbe0088 	sw	s8,136(sp)
9d002934:	afb60080 	sw	s6,128(sp)
9d002938:	afb30074 	sw	s3,116(sp)
9d00293c:	26316c44 	addiu	s1,s1,27716
9d002940:	00a0b821 	move	s7,a1
9d002944:	afa60098 	sw	a2,152(sp)
9d002948:	ae041724 	sw	a0,5924(s0)
9d00294c:	00009021 	move	s2,zero
9d002950:	0000a821 	move	s5,zero
9d002954:	24140025 	li	s4,37
9d002958:	afa20050 	sw	v0,80(sp)
9d00295c:	92f60000 	lbu	s6,0(s7)
9d002960:	12c000b5 	beqz	s6,9d002c38 <_vfscanf_fF+0x334>
9d002964:	02361021 	addu	v0,s1,s6
9d002968:	80420001 	lb	v0,1(v0)
9d00296c:	30420088 	andi	v0,v0,0x88
9d002970:	144000be 	bnez	v0,9d002c6c <_vfscanf_fF+0x368>
9d002974:	26f70001 	addiu	s7,s7,1
9d002978:	16d400a6 	bne	s6,s4,9d002c14 <_vfscanf_fF+0x310>
9d00297c:	24040004 	li	a0,4
9d002980:	82e30000 	lb	v1,0(s7)
9d002984:	0000b021 	move	s6,zero
9d002988:	afa4005c 	sw	a0,92(sp)
9d00298c:	afa00058 	sw	zero,88(sp)
9d002990:	24050004 	li	a1,4
9d002994:	306300ff 	andi	v1,v1,0xff
9d002998:	2c620079 	sltiu	v0,v1,121
9d00299c:	1440001d 	bnez	v0,9d002a14 <_vfscanf_fF+0x110>
9d0029a0:	26fe0001 	addiu	s8,s7,1
9d0029a4:	02231021 	addu	v0,s1,v1
9d0029a8:	90420001 	lbu	v0,1(v0)
9d0029ac:	30420004 	andi	v0,v0,0x4
9d0029b0:	10400247 	beqz	v0,9d0032d0 <_vfscanf_fF+0x9cc>
9d0029b4:	02e02021 	move	a0,s7
9d0029b8:	0f401c6b 	jal	9d0071ac <.LFE0>
9d0029bc:	afa50064 	sw	a1,100(sp)
9d0029c0:	83c30000 	lb	v1,0(s8)
9d0029c4:	3c049d00 	lui	a0,0x9d00
9d0029c8:	24846c44 	addiu	a0,a0,27716
9d0029cc:	7c02b420 	seb	s6,v0
9d0029d0:	00641021 	addu	v0,v1,a0
9d0029d4:	90420001 	lbu	v0,1(v0)
9d0029d8:	30420004 	andi	v0,v0,0x4
9d0029dc:	10400244 	beqz	v0,9d0032f0 <_vfscanf_fF+0x9ec>
9d0029e0:	8fa50064 	lw	a1,100(sp)
9d0029e4:	03c0b821 	move	s7,s8
9d0029e8:	26f70001 	addiu	s7,s7,1
9d0029ec:	82e30000 	lb	v1,0(s7)
9d0029f0:	02231021 	addu	v0,s1,v1
9d0029f4:	90420001 	lbu	v0,1(v0)
9d0029f8:	30420004 	andi	v0,v0,0x4
9d0029fc:	5440fffb 	bnezl	v0,9d0029ec <_vfscanf_fF+0xe8>
9d002a00:	26f70001 	addiu	s7,s7,1
9d002a04:	306300ff 	andi	v1,v1,0xff
9d002a08:	2c620079 	sltiu	v0,v1,121
9d002a0c:	1040ffe5 	beqz	v0,9d0029a4 <_vfscanf_fF+0xa0>
9d002a10:	26fe0001 	addiu	s8,s7,1
9d002a14:	3c049d00 	lui	a0,0x9d00
9d002a18:	00031080 	sll	v0,v1,0x2
9d002a1c:	24842a30 	addiu	a0,a0,10800
9d002a20:	00821021 	addu	v0,a0,v0
9d002a24:	8c420000 	lw	v0,0(v0)
9d002a28:	00400008 	jr	v0
9d002a2c:	00000000 	nop
9d002a30:	9d002c7c 	0x9d002c7c
9d002a34:	9d0029a4 	0x9d0029a4
9d002a38:	9d0029a4 	0x9d0029a4
9d002a3c:	9d0029a4 	0x9d0029a4
9d002a40:	9d0029a4 	0x9d0029a4
9d002a44:	9d0029a4 	0x9d0029a4
9d002a48:	9d0029a4 	0x9d0029a4
9d002a4c:	9d0029a4 	0x9d0029a4
9d002a50:	9d0029a4 	0x9d0029a4
9d002a54:	9d0029a4 	0x9d0029a4
9d002a58:	9d0029a4 	0x9d0029a4
9d002a5c:	9d0029a4 	0x9d0029a4
9d002a60:	9d0029a4 	0x9d0029a4
9d002a64:	9d0029a4 	0x9d0029a4
9d002a68:	9d0029a4 	0x9d0029a4
9d002a6c:	9d0029a4 	0x9d0029a4
9d002a70:	9d0029a4 	0x9d0029a4
9d002a74:	9d0029a4 	0x9d0029a4
9d002a78:	9d0029a4 	0x9d0029a4
9d002a7c:	9d0029a4 	0x9d0029a4
9d002a80:	9d0029a4 	0x9d0029a4
9d002a84:	9d0029a4 	0x9d0029a4
9d002a88:	9d0029a4 	0x9d0029a4
9d002a8c:	9d0029a4 	0x9d0029a4
9d002a90:	9d0029a4 	0x9d0029a4
9d002a94:	9d0029a4 	0x9d0029a4
9d002a98:	9d0029a4 	0x9d0029a4
9d002a9c:	9d0029a4 	0x9d0029a4
9d002aa0:	9d0029a4 	0x9d0029a4
9d002aa4:	9d0029a4 	0x9d0029a4
9d002aa8:	9d0029a4 	0x9d0029a4
9d002aac:	9d0029a4 	0x9d0029a4
9d002ab0:	9d0029a4 	0x9d0029a4
9d002ab4:	9d0029a4 	0x9d0029a4
9d002ab8:	9d0029a4 	0x9d0029a4
9d002abc:	9d0029a4 	0x9d0029a4
9d002ac0:	9d0029a4 	0x9d0029a4
9d002ac4:	9d0029a4 	0x9d0029a4
9d002ac8:	9d0029a4 	0x9d0029a4
9d002acc:	9d0029a4 	0x9d0029a4
9d002ad0:	9d0029a4 	0x9d0029a4
9d002ad4:	9d0029a4 	0x9d0029a4
9d002ad8:	9d002f7c 	0x9d002f7c
9d002adc:	9d0029a4 	0x9d0029a4
9d002ae0:	9d0029a4 	0x9d0029a4
9d002ae4:	9d0029a4 	0x9d0029a4
9d002ae8:	9d0029a4 	0x9d0029a4
9d002aec:	9d0029a4 	0x9d0029a4
9d002af0:	9d0029a4 	0x9d0029a4
9d002af4:	9d0029a4 	0x9d0029a4
9d002af8:	9d0029a4 	0x9d0029a4
9d002afc:	9d0029a4 	0x9d0029a4
9d002b00:	9d0029a4 	0x9d0029a4
9d002b04:	9d0029a4 	0x9d0029a4
9d002b08:	9d0029a4 	0x9d0029a4
9d002b0c:	9d0029a4 	0x9d0029a4
9d002b10:	9d0029a4 	0x9d0029a4
9d002b14:	9d0029a4 	0x9d0029a4
9d002b18:	9d0029a4 	0x9d0029a4
9d002b1c:	9d0029a4 	0x9d0029a4
9d002b20:	9d0029a4 	0x9d0029a4
9d002b24:	9d0029a4 	0x9d0029a4
9d002b28:	9d0029a4 	0x9d0029a4
9d002b2c:	9d0029a4 	0x9d0029a4
9d002b30:	9d0029a4 	0x9d0029a4
9d002b34:	9d0029a4 	0x9d0029a4
9d002b38:	9d0029a4 	0x9d0029a4
9d002b3c:	9d0029a4 	0x9d0029a4
9d002b40:	9d0029a4 	0x9d0029a4
9d002b44:	9d003010 	0x9d003010
9d002b48:	9d0029a4 	0x9d0029a4
9d002b4c:	9d003010 	0x9d003010
9d002b50:	9d0029a4 	0x9d0029a4
9d002b54:	9d0029a4 	0x9d0029a4
9d002b58:	9d0029a4 	0x9d0029a4
9d002b5c:	9d0029a4 	0x9d0029a4
9d002b60:	9d002ff4 	0x9d002ff4
9d002b64:	9d0029a4 	0x9d0029a4
9d002b68:	9d0029a4 	0x9d0029a4
9d002b6c:	9d0029a4 	0x9d0029a4
9d002b70:	9d0029a4 	0x9d0029a4
9d002b74:	9d0029a4 	0x9d0029a4
9d002b78:	9d0029a4 	0x9d0029a4
9d002b7c:	9d0029a4 	0x9d0029a4
9d002b80:	9d0029a4 	0x9d0029a4
9d002b84:	9d0029a4 	0x9d0029a4
9d002b88:	9d0029a4 	0x9d0029a4
9d002b8c:	9d0029a4 	0x9d0029a4
9d002b90:	9d002fe0 	0x9d002fe0
9d002b94:	9d0029a4 	0x9d0029a4
9d002b98:	9d0029a4 	0x9d0029a4
9d002b9c:	9d0029a4 	0x9d0029a4
9d002ba0:	9d0029a4 	0x9d0029a4
9d002ba4:	9d0029a4 	0x9d0029a4
9d002ba8:	9d0029a4 	0x9d0029a4
9d002bac:	9d0029a4 	0x9d0029a4
9d002bb0:	9d0029a4 	0x9d0029a4
9d002bb4:	9d0029a4 	0x9d0029a4
9d002bb8:	9d0029a4 	0x9d0029a4
9d002bbc:	9d002f98 	0x9d002f98
9d002bc0:	9d002d84 	0x9d002d84
9d002bc4:	9d003010 	0x9d003010
9d002bc8:	9d003010 	0x9d003010
9d002bcc:	9d003010 	0x9d003010
9d002bd0:	9d002d70 	0x9d002d70
9d002bd4:	9d002d84 	0x9d002d84
9d002bd8:	9d0029a4 	0x9d0029a4
9d002bdc:	9d0029a4 	0x9d0029a4
9d002be0:	9d002ff4 	0x9d002ff4
9d002be4:	9d0029a4 	0x9d0029a4
9d002be8:	9d0029a4 	0x9d0029a4
9d002bec:	9d002eb0 	0x9d002eb0
9d002bf0:	9d0029a4 	0x9d0029a4
9d002bf4:	9d0029a4 	0x9d0029a4
9d002bf8:	9d0029a4 	0x9d0029a4
9d002bfc:	9d002cc8 	0x9d002cc8
9d002c00:	9d0029a4 	0x9d0029a4
9d002c04:	9d002d84 	0x9d002d84
9d002c08:	9d0029a4 	0x9d0029a4
9d002c0c:	9d0029a4 	0x9d0029a4
9d002c10:	9d002f68 	0x9d002f68
9d002c14:	0f401acf 	jal	9d006b3c <.LFE0>
9d002c18:	8e041724 	lw	a0,5924(s0)
9d002c1c:	52c2ff50 	beql	s6,v0,9d002960 <_vfscanf_fF+0x5c>
9d002c20:	92f60000 	lbu	s6,0(s7)
9d002c24:	2403ffff 	li	v1,-1
9d002c28:	144301a4 	bne	v0,v1,9d0032bc <_vfscanf_fF+0x9b8>
9d002c2c:	3c03a000 	lui	v1,0xa000
9d002c30:	12a00019 	beqz	s5,9d002c98 <_vfscanf_fF+0x394>
9d002c34:	8fbf008c 	lw	ra,140(sp)
9d002c38:	02a01021 	move	v0,s5
9d002c3c:	8fbf008c 	lw	ra,140(sp)
9d002c40:	8fbe0088 	lw	s8,136(sp)
9d002c44:	8fb70084 	lw	s7,132(sp)
9d002c48:	8fb60080 	lw	s6,128(sp)
9d002c4c:	8fb5007c 	lw	s5,124(sp)
9d002c50:	8fb40078 	lw	s4,120(sp)
9d002c54:	8fb30074 	lw	s3,116(sp)
9d002c58:	8fb20070 	lw	s2,112(sp)
9d002c5c:	8fb1006c 	lw	s1,108(sp)
9d002c60:	8fb00068 	lw	s0,104(sp)
9d002c64:	03e00008 	jr	ra
9d002c68:	27bd0090 	addiu	sp,sp,144
9d002c6c:	0f401d8a 	jal	9d007628 <.LFE0>
9d002c70:	00000000 	nop
9d002c74:	0b400a58 	j	9d002960 <_vfscanf_fF+0x5c>
9d002c78:	92f60000 	lbu	s6,0(s7)
9d002c7c:	16a0ffef 	bnez	s5,9d002c3c <_vfscanf_fF+0x338>
9d002c80:	02a01021 	move	v0,s5
9d002c84:	8e021724 	lw	v0,5924(s0)
9d002c88:	9442000c 	lhu	v0,12(v0)
9d002c8c:	30420010 	andi	v0,v0,0x10
9d002c90:	104000a9 	beqz	v0,9d002f38 <_vfscanf_fF+0x634>
9d002c94:	8fbf008c 	lw	ra,140(sp)
9d002c98:	2402ffff 	li	v0,-1
9d002c9c:	8fbe0088 	lw	s8,136(sp)
9d002ca0:	8fb70084 	lw	s7,132(sp)
9d002ca4:	8fb60080 	lw	s6,128(sp)
9d002ca8:	8fb5007c 	lw	s5,124(sp)
9d002cac:	8fb40078 	lw	s4,120(sp)
9d002cb0:	8fb30074 	lw	s3,116(sp)
9d002cb4:	8fb20070 	lw	s2,112(sp)
9d002cb8:	8fb1006c 	lw	s1,108(sp)
9d002cbc:	8fb00068 	lw	s0,104(sp)
9d002cc0:	03e00008 	jr	ra
9d002cc4:	27bd0090 	addiu	sp,sp,144
9d002cc8:	0f401d8a 	jal	9d007628 <.LFE0>
9d002ccc:	00000000 	nop
9d002cd0:	8fa40058 	lw	a0,88(sp)
9d002cd4:	10800121 	beqz	a0,9d00315c <_vfscanf_fF+0x858>
9d002cd8:	8fa20098 	lw	v0,152(sp)
9d002cdc:	0f401acf 	jal	9d006b3c <.LFE0>
9d002ce0:	8e041724 	lw	a0,5924(s0)
9d002ce4:	2403ffff 	li	v1,-1
9d002ce8:	1043ffd1 	beq	v0,v1,9d002c30 <_vfscanf_fF+0x32c>
9d002cec:	00000000 	nop
9d002cf0:	14400012 	bnez	v0,9d002d3c <_vfscanf_fF+0x438>
9d002cf4:	24430001 	addiu	v1,v0,1
9d002cf8:	0b400b55 	j	9d002d54 <_vfscanf_fF+0x450>
9d002cfc:	03c0b821 	move	s7,s8
9d002d00:	10620165 	beq	v1,v0,9d003298 <_vfscanf_fF+0x994>
9d002d04:	8fa30058 	lw	v1,88(sp)
9d002d08:	14600003 	bnez	v1,9d002d18 <_vfscanf_fF+0x414>
9d002d0c:	26d6ffff 	addiu	s6,s6,-1
9d002d10:	a2620000 	sb	v0,0(s3)
9d002d14:	26730001 	addiu	s3,s3,1
9d002d18:	7c16b420 	seb	s6,s6
9d002d1c:	12c0000d 	beqz	s6,9d002d54 <_vfscanf_fF+0x450>
9d002d20:	03c0b821 	move	s7,s8
9d002d24:	0f401acf 	jal	9d006b3c <.LFE0>
9d002d28:	8e041724 	lw	a0,5924(s0)
9d002d2c:	24430001 	addiu	v1,v0,1
9d002d30:	2c640002 	sltiu	a0,v1,2
9d002d34:	14800007 	bnez	a0,9d002d54 <_vfscanf_fF+0x450>
9d002d38:	03c0b821 	move	s7,s8
9d002d3c:	02231821 	addu	v1,s1,v1
9d002d40:	80630000 	lb	v1,0(v1)
9d002d44:	30630088 	andi	v1,v1,0x88
9d002d48:	5060ffed 	beqzl	v1,9d002d00 <_vfscanf_fF+0x3fc>
9d002d4c:	83c30000 	lb	v1,0(s8)
9d002d50:	03c0b821 	move	s7,s8
9d002d54:	8fa40058 	lw	a0,88(sp)
9d002d58:	5480ff01 	bnezl	a0,9d002960 <_vfscanf_fF+0x5c>
9d002d5c:	92f60000 	lbu	s6,0(s7)
9d002d60:	26b50001 	addiu	s5,s5,1
9d002d64:	32b500ff 	andi	s5,s5,0xff
9d002d68:	0b400a57 	j	9d00295c <_vfscanf_fF+0x58>
9d002d6c:	a2600000 	sb	zero,0(s3)
9d002d70:	24020002 	li	v0,2
9d002d74:	83c30000 	lb	v1,0(s8)
9d002d78:	03c0b821 	move	s7,s8
9d002d7c:	0b400a65 	j	9d002994 <_vfscanf_fF+0x90>
9d002d80:	afa2005c 	sw	v0,92(sp)
9d002d84:	2402000a 	li	v0,10
9d002d88:	03c0b821 	move	s7,s8
9d002d8c:	afa20054 	sw	v0,84(sp)
9d002d90:	0f401d8a 	jal	9d007628 <.LFE0>
9d002d94:	00000000 	nop
9d002d98:	0f401acf 	jal	9d006b3c <.LFE0>
9d002d9c:	8e041724 	lw	a0,5924(s0)
9d002da0:	0040f021 	move	s8,v0
9d002da4:	2402002d 	li	v0,45
9d002da8:	13c2004c 	beq	s8,v0,9d002edc <_vfscanf_fF+0x5d8>
9d002dac:	3c02a000 	lui	v0,0xa000
9d002db0:	8fa50054 	lw	a1,84(sp)
9d002db4:	03c02021 	move	a0,s8
9d002db8:	02403021 	move	a2,s2
9d002dbc:	0f401cc1 	jal	9d007304 <range>
9d002dc0:	afa00060 	sw	zero,96(sp)
9d002dc4:	240300ff 	li	v1,255
9d002dc8:	10430051 	beq	v0,v1,9d002f10 <_vfscanf_fF+0x60c>
9d002dcc:	8e051724 	lw	a1,5924(s0)
9d002dd0:	24020030 	li	v0,48
9d002dd4:	13c200e5 	beq	s8,v0,9d00316c <_vfscanf_fF+0x868>
9d002dd8:	00000000 	nop
9d002ddc:	00001821 	move	v1,zero
9d002de0:	8fa20054 	lw	v0,84(sp)
9d002de4:	03c02021 	move	a0,s8
9d002de8:	70621802 	mul	v1,v1,v0
9d002dec:	00402821 	move	a1,v0
9d002df0:	02403021 	move	a2,s2
9d002df4:	afa30064 	sw	v1,100(sp)
9d002df8:	0f401cc1 	jal	9d007304 <range>
9d002dfc:	26d6ffff 	addiu	s6,s6,-1
9d002e00:	8fa30064 	lw	v1,100(sp)
9d002e04:	7c16b420 	seb	s6,s6
9d002e08:	12c0000c 	beqz	s6,9d002e3c <_vfscanf_fF+0x538>
9d002e0c:	00431821 	addu	v1,v0,v1
9d002e10:	8e041724 	lw	a0,5924(s0)
9d002e14:	0f401acf 	jal	9d006b3c <.LFE0>
9d002e18:	afa30064 	sw	v1,100(sp)
9d002e1c:	8fa50054 	lw	a1,84(sp)
9d002e20:	00402021 	move	a0,v0
9d002e24:	02403021 	move	a2,s2
9d002e28:	0f401cc1 	jal	9d007304 <range>
9d002e2c:	0040f021 	move	s8,v0
9d002e30:	240400ff 	li	a0,255
9d002e34:	1444ffea 	bne	v0,a0,9d002de0 <_vfscanf_fF+0x4dc>
9d002e38:	8fa30064 	lw	v1,100(sp)
9d002e3c:	8fa50054 	lw	a1,84(sp)
9d002e40:	03c02021 	move	a0,s8
9d002e44:	02403021 	move	a2,s2
9d002e48:	0f401cc1 	jal	9d007304 <range>
9d002e4c:	afa30064 	sw	v1,100(sp)
9d002e50:	240400ff 	li	a0,255
9d002e54:	104400fb 	beq	v0,a0,9d003244 <_vfscanf_fF+0x940>
9d002e58:	8fa30064 	lw	v1,100(sp)
9d002e5c:	8fa20060 	lw	v0,96(sp)
9d002e60:	54400001 	bnezl	v0,9d002e68 <_vfscanf_fF+0x564>
9d002e64:	00031823 	negu	v1,v1
9d002e68:	8fa40058 	lw	a0,88(sp)
9d002e6c:	5480febc 	bnezl	a0,9d002960 <_vfscanf_fF+0x5c>
9d002e70:	92f60000 	lbu	s6,0(s7)
9d002e74:	8fa4005c 	lw	a0,92(sp)
9d002e78:	26b50001 	addiu	s5,s5,1
9d002e7c:	24020004 	li	v0,4
9d002e80:	10820005 	beq	a0,v0,9d002e98 <_vfscanf_fF+0x594>
9d002e84:	32b500ff 	andi	s5,s5,0xff
9d002e88:	8fa4005c 	lw	a0,92(sp)
9d002e8c:	24020002 	li	v0,2
9d002e90:	108200f1 	beq	a0,v0,9d003258 <_vfscanf_fF+0x954>
9d002e94:	8fa40098 	lw	a0,152(sp)
9d002e98:	8fa40098 	lw	a0,152(sp)
9d002e9c:	8c820000 	lw	v0,0(a0)
9d002ea0:	24840004 	addiu	a0,a0,4
9d002ea4:	afa40098 	sw	a0,152(sp)
9d002ea8:	0b400a57 	j	9d00295c <_vfscanf_fF+0x58>
9d002eac:	ac430000 	sw	v1,0(v0)
9d002eb0:	24030008 	li	v1,8
9d002eb4:	0f401d8a 	jal	9d007628 <.LFE0>
9d002eb8:	afa30054 	sw	v1,84(sp)
9d002ebc:	8e041724 	lw	a0,5924(s0)
9d002ec0:	0f401acf 	jal	9d006b3c <.LFE0>
9d002ec4:	03c0b821 	move	s7,s8
9d002ec8:	0040f021 	move	s8,v0
9d002ecc:	2402002d 	li	v0,45
9d002ed0:	17c2ffb8 	bne	s8,v0,9d002db4 <_vfscanf_fF+0x4b0>
9d002ed4:	8fa50054 	lw	a1,84(sp)
9d002ed8:	3c02a000 	lui	v0,0xa000
9d002edc:	8c441724 	lw	a0,5924(v0)
9d002ee0:	24030001 	li	v1,1
9d002ee4:	0f401acf 	jal	9d006b3c <.LFE0>
9d002ee8:	afa30060 	sw	v1,96(sp)
9d002eec:	0040f021 	move	s8,v0
9d002ef0:	8fa50054 	lw	a1,84(sp)
9d002ef4:	03c02021 	move	a0,s8
9d002ef8:	0f401cc1 	jal	9d007304 <range>
9d002efc:	02403021 	move	a2,s2
9d002f00:	240300ff 	li	v1,255
9d002f04:	1443ffb3 	bne	v0,v1,9d002dd4 <_vfscanf_fF+0x4d0>
9d002f08:	24020030 	li	v0,48
9d002f0c:	8e051724 	lw	a1,5924(s0)
9d002f10:	0f401d33 	jal	9d0074cc <.LFE0>
9d002f14:	03c02021 	move	a0,s8
9d002f18:	16a0ff48 	bnez	s5,9d002c3c <_vfscanf_fF+0x338>
9d002f1c:	02a01021 	move	v0,s5
9d002f20:	3c02a000 	lui	v0,0xa000
9d002f24:	8c421724 	lw	v0,5924(v0)
9d002f28:	9442000c 	lhu	v0,12(v0)
9d002f2c:	30420010 	andi	v0,v0,0x10
9d002f30:	1440ff59 	bnez	v0,9d002c98 <_vfscanf_fF+0x394>
9d002f34:	8fbf008c 	lw	ra,140(sp)
9d002f38:	00001021 	move	v0,zero
9d002f3c:	8fbe0088 	lw	s8,136(sp)
9d002f40:	8fb70084 	lw	s7,132(sp)
9d002f44:	8fb60080 	lw	s6,128(sp)
9d002f48:	8fb5007c 	lw	s5,124(sp)
9d002f4c:	8fb40078 	lw	s4,120(sp)
9d002f50:	8fb30074 	lw	s3,116(sp)
9d002f54:	8fb20070 	lw	s2,112(sp)
9d002f58:	8fb1006c 	lw	s1,108(sp)
9d002f5c:	8fb00068 	lw	s0,104(sp)
9d002f60:	03e00008 	jr	ra
9d002f64:	27bd0090 	addiu	sp,sp,144
9d002f68:	24020010 	li	v0,16
9d002f6c:	03c0b821 	move	s7,s8
9d002f70:	afa20054 	sw	v0,84(sp)
9d002f74:	0b400b64 	j	9d002d90 <_vfscanf_fF+0x48c>
9d002f78:	00009021 	move	s2,zero
9d002f7c:	8fa30058 	lw	v1,88(sp)
9d002f80:	24620001 	addiu	v0,v1,1
9d002f84:	304200ff 	andi	v0,v0,0xff
9d002f88:	afa20058 	sw	v0,88(sp)
9d002f8c:	83c30000 	lb	v1,0(s8)
9d002f90:	0b400a65 	j	9d002994 <_vfscanf_fF+0x90>
9d002f94:	03c0b821 	move	s7,s8
9d002f98:	8fa20058 	lw	v0,88(sp)
9d002f9c:	10400069 	beqz	v0,9d003144 <_vfscanf_fF+0x840>
9d002fa0:	8fa30098 	lw	v1,152(sp)
9d002fa4:	2417ffff 	li	s7,-1
9d002fa8:	0f401acf 	jal	9d006b3c <.LFE0>
9d002fac:	8e041724 	lw	a0,5924(s0)
9d002fb0:	1057ff1f 	beq	v0,s7,9d002c30 <_vfscanf_fF+0x32c>
9d002fb4:	00000000 	nop
9d002fb8:	8fa40058 	lw	a0,88(sp)
9d002fbc:	14800003 	bnez	a0,9d002fcc <_vfscanf_fF+0x6c8>
9d002fc0:	26d6ffff 	addiu	s6,s6,-1
9d002fc4:	a2620000 	sb	v0,0(s3)
9d002fc8:	26730001 	addiu	s3,s3,1
9d002fcc:	7c16b420 	seb	s6,s6
9d002fd0:	1ec0fff5 	bgtz	s6,9d002fa8 <_vfscanf_fF+0x6a4>
9d002fd4:	00000000 	nop
9d002fd8:	0b400a57 	j	9d00295c <_vfscanf_fF+0x58>
9d002fdc:	03c0b821 	move	s7,s8
9d002fe0:	24030010 	li	v1,16
9d002fe4:	03c0b821 	move	s7,s8
9d002fe8:	afa30054 	sw	v1,84(sp)
9d002fec:	0b400b64 	j	9d002d90 <_vfscanf_fF+0x48c>
9d002ff0:	24120001 	li	s2,1
9d002ff4:	8fa3005c 	lw	v1,92(sp)
9d002ff8:	1065ffe4 	beq	v1,a1,9d002f8c <_vfscanf_fF+0x688>
9d002ffc:	24040008 	li	a0,8
9d003000:	83c30000 	lb	v1,0(s8)
9d003004:	03c0b821 	move	s7,s8
9d003008:	0b400a65 	j	9d002994 <_vfscanf_fF+0x90>
9d00300c:	afa4005c 	sw	a0,92(sp)
9d003010:	0f401d8a 	jal	9d007628 <.LFE0>
9d003014:	00000000 	nop
9d003018:	52c00001 	beqzl	s6,9d003020 <_vfscanf_fF+0x71c>
9d00301c:	2416003b 	li	s6,59
9d003020:	0f401acf 	jal	9d006b3c <.LFE0>
9d003024:	8e041724 	lw	a0,5924(s0)
9d003028:	2403002d 	li	v1,45
9d00302c:	1043009c 	beq	v0,v1,9d0032a0 <_vfscanf_fF+0x99c>
9d003030:	3c03a000 	lui	v1,0xa000
9d003034:	27b70010 	addiu	s7,sp,16
9d003038:	26f70001 	addiu	s7,s7,1
9d00303c:	0b400c1e 	j	9d003078 <_vfscanf_fF+0x774>
9d003040:	afa00054 	sw	zero,84(sp)
9d003044:	02221821 	addu	v1,s1,v0
9d003048:	90630001 	lbu	v1,1(v1)
9d00304c:	30630004 	andi	v1,v1,0x4
9d003050:	1060000c 	beqz	v1,9d003084 <_vfscanf_fF+0x780>
9d003054:	8fa40054 	lw	a0,84(sp)
9d003058:	2404002e 	li	a0,46
9d00305c:	1044000f 	beq	v0,a0,9d00309c <_vfscanf_fF+0x798>
9d003060:	a2e2ffff 	sb	v0,-1(s7)
9d003064:	8e041724 	lw	a0,5924(s0)
9d003068:	26d6ffff 	addiu	s6,s6,-1
9d00306c:	0f401acf 	jal	9d006b3c <.LFE0>
9d003070:	26f70001 	addiu	s7,s7,1
9d003074:	7c16b420 	seb	s6,s6
9d003078:	16c0fff2 	bnez	s6,9d003044 <_vfscanf_fF+0x740>
9d00307c:	26f3ffff 	addiu	s3,s7,-1
9d003080:	8fa40054 	lw	a0,84(sp)
9d003084:	1480000a 	bnez	a0,9d0030b0 <_vfscanf_fF+0x7ac>
9d003088:	2403002e 	li	v1,46
9d00308c:	14430008 	bne	v0,v1,9d0030b0 <_vfscanf_fF+0x7ac>
9d003090:	00000000 	nop
9d003094:	2402002e 	li	v0,46
9d003098:	a2e2ffff 	sb	v0,-1(s7)
9d00309c:	8fa30054 	lw	v1,84(sp)
9d0030a0:	24620001 	addiu	v0,v1,1
9d0030a4:	304200ff 	andi	v0,v0,0xff
9d0030a8:	0b400c19 	j	9d003064 <_vfscanf_fF+0x760>
9d0030ac:	afa20054 	sw	v0,84(sp)
9d0030b0:	12c00007 	beqz	s6,9d0030d0 <_vfscanf_fF+0x7cc>
9d0030b4:	2403ffff 	li	v1,-1
9d0030b8:	24030065 	li	v1,101
9d0030bc:	10430038 	beq	v0,v1,9d0031a0 <_vfscanf_fF+0x89c>
9d0030c0:	24030045 	li	v1,69
9d0030c4:	50430037 	beql	v0,v1,9d0031a4 <_vfscanf_fF+0x8a0>
9d0030c8:	a2620000 	sb	v0,0(s3)
9d0030cc:	2403ffff 	li	v1,-1
9d0030d0:	10430004 	beq	v0,v1,9d0030e4 <_vfscanf_fF+0x7e0>
9d0030d4:	a2600000 	sb	zero,0(s3)
9d0030d8:	8e051724 	lw	a1,5924(s0)
9d0030dc:	0f401d33 	jal	9d0074cc <.LFE0>
9d0030e0:	00402021 	move	a0,v0
9d0030e4:	8fa40050 	lw	a0,80(sp)
9d0030e8:	1093fee4 	beq	a0,s3,9d002c7c <_vfscanf_fF+0x378>
9d0030ec:	8fa20058 	lw	v0,88(sp)
9d0030f0:	1440fe1a 	bnez	v0,9d00295c <_vfscanf_fF+0x58>
9d0030f4:	03c0b821 	move	s7,s8
9d0030f8:	8fa3005c 	lw	v1,92(sp)
9d0030fc:	26b50001 	addiu	s5,s5,1
9d003100:	2c620005 	sltiu	v0,v1,5
9d003104:	14400059 	bnez	v0,9d00326c <_vfscanf_fF+0x968>
9d003108:	32b500ff 	andi	s5,s5,0xff
9d00310c:	8fa20098 	lw	v0,152(sp)
9d003110:	00002821 	move	a1,zero
9d003114:	27a40010 	addiu	a0,sp,16
9d003118:	0f401e6d 	jal	9d0079b4 <.LFE1>
9d00311c:	8c560000 	lw	s6,0(v0)
9d003120:	8fa30098 	lw	v1,152(sp)
9d003124:	00402021 	move	a0,v0
9d003128:	0f401c96 	jal	9d007258 <.LFE0>
9d00312c:	24770004 	addiu	s7,v1,4
9d003130:	aec20000 	sw	v0,0(s6)
9d003134:	aec30004 	sw	v1,4(s6)
9d003138:	afb70098 	sw	s7,152(sp)
9d00313c:	0b400a57 	j	9d00295c <_vfscanf_fF+0x58>
9d003140:	03c0b821 	move	s7,s8
9d003144:	26b50001 	addiu	s5,s5,1
9d003148:	8c730000 	lw	s3,0(v1)
9d00314c:	24630004 	addiu	v1,v1,4
9d003150:	32b500ff 	andi	s5,s5,0xff
9d003154:	0b400be9 	j	9d002fa4 <_vfscanf_fF+0x6a0>
9d003158:	afa30098 	sw	v1,152(sp)
9d00315c:	8c530000 	lw	s3,0(v0)
9d003160:	24420004 	addiu	v0,v0,4
9d003164:	0b400b37 	j	9d002cdc <_vfscanf_fF+0x3d8>
9d003168:	afa20098 	sw	v0,152(sp)
9d00316c:	0f401acf 	jal	9d006b3c <.LFE0>
9d003170:	8e041724 	lw	a0,5924(s0)
9d003174:	24030078 	li	v1,120
9d003178:	1043002c 	beq	v0,v1,9d00322c <_vfscanf_fF+0x928>
9d00317c:	24030058 	li	v1,88
9d003180:	1443002c 	bne	v0,v1,9d003234 <_vfscanf_fF+0x930>
9d003184:	8e051724 	lw	a1,5924(s0)
9d003188:	1240002a 	beqz	s2,9d003234 <_vfscanf_fF+0x930>
9d00318c:	00000000 	nop
9d003190:	0f401acf 	jal	9d006b3c <.LFE0>
9d003194:	8e041724 	lw	a0,5924(s0)
9d003198:	0b400b77 	j	9d002ddc <_vfscanf_fF+0x4d8>
9d00319c:	0040f021 	move	s8,v0
9d0031a0:	a2620000 	sb	v0,0(s3)
9d0031a4:	8e041724 	lw	a0,5924(s0)
9d0031a8:	26d6ffff 	addiu	s6,s6,-1
9d0031ac:	7c16b420 	seb	s6,s6
9d0031b0:	0f401acf 	jal	9d006b3c <.LFE0>
9d0031b4:	26730001 	addiu	s3,s3,1
9d0031b8:	12c0ffc5 	beqz	s6,9d0030d0 <_vfscanf_fF+0x7cc>
9d0031bc:	2403ffff 	li	v1,-1
9d0031c0:	2403002d 	li	v1,45
9d0031c4:	1043004c 	beq	v0,v1,9d0032f8 <_vfscanf_fF+0x9f4>
9d0031c8:	2403002b 	li	v1,43
9d0031cc:	5043004b 	beql	v0,v1,9d0032fc <_vfscanf_fF+0x9f8>
9d0031d0:	a2620000 	sb	v0,0(s3)
9d0031d4:	02221821 	addu	v1,s1,v0
9d0031d8:	90630001 	lbu	v1,1(v1)
9d0031dc:	30630004 	andi	v1,v1,0x4
9d0031e0:	1060ffba 	beqz	v1,9d0030cc <_vfscanf_fF+0x7c8>
9d0031e4:	26d7ffff 	addiu	s7,s6,-1
9d0031e8:	32f700ff 	andi	s7,s7,0xff
9d0031ec:	26760001 	addiu	s6,s3,1
9d0031f0:	0b400c83 	j	9d00320c <_vfscanf_fF+0x908>
9d0031f4:	02d7b821 	addu	s7,s6,s7
9d0031f8:	90630001 	lbu	v1,1(v1)
9d0031fc:	30630004 	andi	v1,v1,0x4
9d003200:	1060ffb3 	beqz	v1,9d0030d0 <_vfscanf_fF+0x7cc>
9d003204:	2403ffff 	li	v1,-1
9d003208:	26d60001 	addiu	s6,s6,1
9d00320c:	a2620000 	sb	v0,0(s3)
9d003210:	8e041724 	lw	a0,5924(s0)
9d003214:	0f401acf 	jal	9d006b3c <.LFE0>
9d003218:	02c09821 	move	s3,s6
9d00321c:	56d7fff6 	bnel	s6,s7,9d0031f8 <_vfscanf_fF+0x8f4>
9d003220:	02221821 	addu	v1,s1,v0
9d003224:	0b400c34 	j	9d0030d0 <_vfscanf_fF+0x7cc>
9d003228:	2403ffff 	li	v1,-1
9d00322c:	1240ffd8 	beqz	s2,9d003190 <_vfscanf_fF+0x88c>
9d003230:	8e051724 	lw	a1,5924(s0)
9d003234:	0f401d33 	jal	9d0074cc <.LFE0>
9d003238:	00402021 	move	a0,v0
9d00323c:	0b400b78 	j	9d002de0 <_vfscanf_fF+0x4dc>
9d003240:	00001821 	move	v1,zero
9d003244:	8e051724 	lw	a1,5924(s0)
9d003248:	0f401d33 	jal	9d0074cc <.LFE0>
9d00324c:	03c02021 	move	a0,s8
9d003250:	0b400b97 	j	9d002e5c <_vfscanf_fF+0x558>
9d003254:	8fa30064 	lw	v1,100(sp)
9d003258:	8c820000 	lw	v0,0(a0)
9d00325c:	24840004 	addiu	a0,a0,4
9d003260:	afa40098 	sw	a0,152(sp)
9d003264:	0b400a57 	j	9d00295c <_vfscanf_fF+0x58>
9d003268:	a4430000 	sh	v1,0(v0)
9d00326c:	8fa40098 	lw	a0,152(sp)
9d003270:	8fa20098 	lw	v0,152(sp)
9d003274:	8c970000 	lw	s7,0(a0)
9d003278:	00002821 	move	a1,zero
9d00327c:	27a40010 	addiu	a0,sp,16
9d003280:	0f401e8e 	jal	9d007a38 <.LFE1>
9d003284:	24560004 	addiu	s6,v0,4
9d003288:	aee20000 	sw	v0,0(s7)
9d00328c:	afb60098 	sw	s6,152(sp)
9d003290:	0b400a57 	j	9d00295c <_vfscanf_fF+0x58>
9d003294:	03c0b821 	move	s7,s8
9d003298:	0b400b55 	j	9d002d54 <_vfscanf_fF+0x450>
9d00329c:	27d70001 	addiu	s7,s8,1
9d0032a0:	8c641724 	lw	a0,5924(v1)
9d0032a4:	26d6ffff 	addiu	s6,s6,-1
9d0032a8:	a3a20010 	sb	v0,16(sp)
9d0032ac:	0f401acf 	jal	9d006b3c <.LFE0>
9d0032b0:	7c16b420 	seb	s6,s6
9d0032b4:	0b400c0e 	j	9d003038 <_vfscanf_fF+0x734>
9d0032b8:	27b70011 	addiu	s7,sp,17
9d0032bc:	8c651724 	lw	a1,5924(v1)
9d0032c0:	0f401d33 	jal	9d0074cc <.LFE0>
9d0032c4:	00402021 	move	a0,v0
9d0032c8:	0b400b0f 	j	9d002c3c <_vfscanf_fF+0x338>
9d0032cc:	02a01021 	move	v0,s5
9d0032d0:	8e041724 	lw	a0,5924(s0)
9d0032d4:	0f401acf 	jal	9d006b3c <.LFE0>
9d0032d8:	afa30064 	sw	v1,100(sp)
9d0032dc:	8fa30064 	lw	v1,100(sp)
9d0032e0:	1462fe51 	bne	v1,v0,9d002c28 <_vfscanf_fF+0x324>
9d0032e4:	2403ffff 	li	v1,-1
9d0032e8:	0b400a57 	j	9d00295c <_vfscanf_fF+0x58>
9d0032ec:	03c0b821 	move	s7,s8
9d0032f0:	0b400a65 	j	9d002994 <_vfscanf_fF+0x90>
9d0032f4:	03c0b821 	move	s7,s8
9d0032f8:	a2620000 	sb	v0,0(s3)
9d0032fc:	8e041724 	lw	a0,5924(s0)
9d003300:	26d6ffff 	addiu	s6,s6,-1
9d003304:	7c16b420 	seb	s6,s6
9d003308:	0f401acf 	jal	9d006b3c <.LFE0>
9d00330c:	26730001 	addiu	s3,s3,1
9d003310:	56c0ffb1 	bnezl	s6,9d0031d8 <_vfscanf_fF+0x8d4>
9d003314:	02221821 	addu	v1,s1,v0
9d003318:	0b400c34 	j	9d0030d0 <_vfscanf_fF+0x7cc>
9d00331c:	2403ffff 	li	v1,-1

Disassembly of section .text:

9d003320 <printGainsToLCD>:
volatile int REFarray[PLOTPTS]; // reference values to plot
volatile int StoringData = 0; // if this flag = 1, currently storing plot data
volatile float Kp = 0, Ki = 0; // control gains
volatile int Eint = 0, Eprev = 0;

void printGainsToLCD() {
9d003320:	27bdff20 	addiu	sp,sp,-224
9d003324:	afbf00dc 	sw	ra,220(sp)
	char screen_message_Kp[100], screen_message_Ki[100];
	LCD_Clear();                              // clear LCD screen
9d003328:	0f401238 	jal	9d0048e0 <LCD_Clear>
9d00332c:	00000000 	nop
    LCD_Move(0,0);
9d003330:	00002021 	move	a0,zero
9d003334:	0f4011f5 	jal	9d0047d4 <LCD_Move>
9d003338:	00002821 	move	a1,zero
    sprintf(screen_message_Kp, "Kp = %d", Kp);
9d00333c:	8f868020 	lw	a2,-32736(gp)
9d003340:	27a40010 	addiu	a0,sp,16
9d003344:	3c059d00 	lui	a1,0x9d00
9d003348:	0f401d70 	jal	9d0075c0 <_sprintf_cdnopuxX>
9d00334c:	24a579dc 	addiu	a1,a1,31196
    sprintf(screen_message_Ki, "Ki = %d", Ki);
9d003350:	8f868024 	lw	a2,-32732(gp)
9d003354:	27a40074 	addiu	a0,sp,116
9d003358:	3c059d00 	lui	a1,0x9d00
9d00335c:	0f401d70 	jal	9d0075c0 <_sprintf_cdnopuxX>
9d003360:	24a579e4 	addiu	a1,a1,31204
    LCD_WriteString(screen_message_Kp);                     // write msg at row 0 col 0
9d003364:	0f4011c1 	jal	9d004704 <LCD_WriteString>
9d003368:	27a40010 	addiu	a0,sp,16
    LCD_Move(0,6);
9d00336c:	00002021 	move	a0,zero
9d003370:	0f4011f5 	jal	9d0047d4 <LCD_Move>
9d003374:	24050006 	li	a1,6
    //LCD_WriteString((char *) Kp);
    LCD_Move(1,0);
9d003378:	24040001 	li	a0,1
9d00337c:	0f4011f5 	jal	9d0047d4 <LCD_Move>
9d003380:	00002821 	move	a1,zero
    LCD_WriteString(screen_message_Ki);
9d003384:	0f4011c1 	jal	9d004704 <LCD_WriteString>
9d003388:	27a40074 	addiu	a0,sp,116
    LCD_Move(1,6);
9d00338c:	24040001 	li	a0,1
9d003390:	0f4011f5 	jal	9d0047d4 <LCD_Move>
9d003394:	24050006 	li	a1,6
}
9d003398:	8fbf00dc 	lw	ra,220(sp)
9d00339c:	03e00008 	jr	ra
9d0033a0:	27bd00e0 	addiu	sp,sp,224

9d0033a4 <makeWaveform>:

void makeWaveform() {
	int i, center=500, A=300; // square wave, amplitude A centered at center
	for (i=0; i<NUMSAMPS; i++) {
9d0033a4:	00001021 	move	v0,zero
		if (i<NUMSAMPS/2) Waveform[i] = center + A;
		else Waveform[i] = center - A;
9d0033a8:	3c05a000 	lui	a1,0xa000
9d0033ac:	24a506a4 	addiu	a1,a1,1700
9d0033b0:	240700c8 	li	a3,200
}

void makeWaveform() {
	int i, center=500, A=300; // square wave, amplitude A centered at center
	for (i=0; i<NUMSAMPS; i++) {
		if (i<NUMSAMPS/2) Waveform[i] = center + A;
9d0033b4:	24060320 	li	a2,800
    LCD_Move(1,6);
}

void makeWaveform() {
	int i, center=500, A=300; // square wave, amplitude A centered at center
	for (i=0; i<NUMSAMPS; i++) {
9d0033b8:	240403e8 	li	a0,1000
		if (i<NUMSAMPS/2) Waveform[i] = center + A;
9d0033bc:	284301f4 	slti	v1,v0,500
9d0033c0:	10600005 	beqz	v1,9d0033d8 <makeWaveform+0x34>
9d0033c4:	00021880 	sll	v1,v0,0x2
9d0033c8:	00651821 	addu	v1,v1,a1
9d0033cc:	ac660000 	sw	a2,0(v1)
    LCD_Move(1,6);
}

void makeWaveform() {
	int i, center=500, A=300; // square wave, amplitude A centered at center
	for (i=0; i<NUMSAMPS; i++) {
9d0033d0:	0b400cf9 	j	9d0033e4 <makeWaveform+0x40>
9d0033d4:	24420001 	addiu	v0,v0,1
		if (i<NUMSAMPS/2) Waveform[i] = center + A;
		else Waveform[i] = center - A;
9d0033d8:	00651821 	addu	v1,v1,a1
9d0033dc:	ac670000 	sw	a3,0(v1)
    LCD_Move(1,6);
}

void makeWaveform() {
	int i, center=500, A=300; // square wave, amplitude A centered at center
	for (i=0; i<NUMSAMPS; i++) {
9d0033e0:	24420001 	addiu	v0,v0,1
9d0033e4:	1444fff6 	bne	v0,a0,9d0033c0 <makeWaveform+0x1c>
9d0033e8:	284301f4 	slti	v1,v0,500
		if (i<NUMSAMPS/2) Waveform[i] = center + A;
		else Waveform[i] = center - A;
	}
}
9d0033ec:	03e00008 	jr	ra
9d0033f0:	00000000 	nop

9d0033f4 <adc_sample_convert>:

unsigned int adc_sample_convert() {
	unsigned int elapsed = 0, finish_time = 0;
	AD1CHSbits.CH0SA = 0;
9d0033f4:	3c02bf81 	lui	v0,0xbf81
9d0033f8:	8c439040 	lw	v1,-28608(v0)
9d0033fc:	7c039c04 	ins	v1,zero,0x10,0x4
9d003400:	ac439040 	sw	v1,-28608(v0)
	AD1CON1bits.SAMP = 1;
9d003404:	3c02bf81 	lui	v0,0xbf81
9d003408:	8c439000 	lw	v1,-28672(v0)
9d00340c:	24040001 	li	a0,1
9d003410:	7c830844 	ins	v1,a0,0x1,0x1
9d003414:	ac439000 	sw	v1,-28672(v0)
	elapsed = _CP0_GET_COUNT();
9d003418:	40034800 	mfc0	v1,c0_count
	finish_time = elapsed + SAMPLE_TIME;
9d00341c:	2463000a 	addiu	v1,v1,10
	while (_CP0_GET_COUNT() < finish_time) {
9d003420:	40024800 	mfc0	v0,c0_count
9d003424:	0043102b 	sltu	v0,v0,v1
9d003428:	1440fffd 	bnez	v0,9d003420 <adc_sample_convert+0x2c>
9d00342c:	3c02bf81 	lui	v0,0xbf81
		;
	}
	AD1CON1bits.SAMP = 0;
9d003430:	8c439000 	lw	v1,-28672(v0)
9d003434:	7c030844 	ins	v1,zero,0x1,0x1
9d003438:	ac439000 	sw	v1,-28672(v0)
	while (!AD1CON1bits.DONE) {
9d00343c:	00401821 	move	v1,v0
9d003440:	8c629000 	lw	v0,-28672(v1)
9d003444:	30420001 	andi	v0,v0,0x1
9d003448:	1040fffd 	beqz	v0,9d003440 <adc_sample_convert+0x4c>
9d00344c:	3c02bf81 	lui	v0,0xbf81
		;
	}

	return ADC1BUF0;
9d003450:	8c429070 	lw	v0,-28560(v0)
}
9d003454:	03e00008 	jr	ra
9d003458:	00000000 	nop

9d00345c <Controller>:
// }




void __ISR(_TIMER_2_VECTOR, IPL5SOFT) Controller(void) { // _TIMER_2_VECTOR = 8 (p32mx795f512l.h)
9d00345c:	415de800 	rdpgpr	sp,sp
9d003460:	401a7000 	mfc0	k0,c0_epc
9d003464:	401b6000 	mfc0	k1,c0_status
9d003468:	27bdff90 	addiu	sp,sp,-112
9d00346c:	afba006c 	sw	k0,108(sp)
9d003470:	401a6002 	mfc0	k0,c0_srsctl
9d003474:	afbb0068 	sw	k1,104(sp)
9d003478:	afba0064 	sw	k0,100(sp)
9d00347c:	7c1b7844 	ins	k1,zero,0x1,0xf
9d003480:	377b1400 	ori	k1,k1,0x1400
9d003484:	409b6000 	mtc0	k1,c0_status
9d003488:	afbf0054 	sw	ra,84(sp)
9d00348c:	afb90050 	sw	t9,80(sp)
9d003490:	afb8004c 	sw	t8,76(sp)
9d003494:	afaf0048 	sw	t7,72(sp)
9d003498:	afae0044 	sw	t6,68(sp)
9d00349c:	afad0040 	sw	t5,64(sp)
9d0034a0:	afac003c 	sw	t4,60(sp)
9d0034a4:	afab0038 	sw	t3,56(sp)
9d0034a8:	afaa0034 	sw	t2,52(sp)
9d0034ac:	afa90030 	sw	t1,48(sp)
9d0034b0:	afa8002c 	sw	t0,44(sp)
9d0034b4:	afa70028 	sw	a3,40(sp)
9d0034b8:	afa60024 	sw	a2,36(sp)
9d0034bc:	afa50020 	sw	a1,32(sp)
9d0034c0:	afa4001c 	sw	a0,28(sp)
9d0034c4:	afa30018 	sw	v1,24(sp)
9d0034c8:	afa20014 	sw	v0,20(sp)
9d0034cc:	afa10010 	sw	at,16(sp)
9d0034d0:	00001012 	mflo	v0
9d0034d4:	afa2005c 	sw	v0,92(sp)
9d0034d8:	00001810 	mfhi	v1
9d0034dc:	afa30058 	sw	v1,88(sp)
	static int counter = -1; // initialize counter once
	static int plotind = 0; // index for data arrays; counts up to PLOTPTS
	static int decctr = 0; // counts to store data one every DECIMATION
	static int adcval = 0; //
	counter++; // add one to counter every time ISR is entered
9d0034e0:	8f828010 	lw	v0,-32752(gp)
9d0034e4:	24420001 	addiu	v0,v0,1
	if (counter==NUMSAMPS) counter = -1; // roll the counter over when needed
9d0034e8:	240303e8 	li	v1,1000
9d0034ec:	14430003 	bne	v0,v1,9d0034fc <Controller+0xa0>
9d0034f0:	af828010 	sw	v0,-32752(gp)
9d0034f4:	2402ffff 	li	v0,-1
9d0034f8:	af828010 	sw	v0,-32752(gp)
	OC1RS = Waveform[counter];// insert line(s) to set OC1RS
9d0034fc:	8f838010 	lw	v1,-32752(gp)
9d003500:	00031880 	sll	v1,v1,0x2
9d003504:	3c02a000 	lui	v0,0xa000
9d003508:	244206a4 	addiu	v0,v0,1700
9d00350c:	00621021 	addu	v0,v1,v0
9d003510:	8c430000 	lw	v1,0(v0)
9d003514:	3c02bf80 	lui	v0,0xbf80
9d003518:	ac433020 	sw	v1,12320(v0)
	adcval = adc_sample_convert();
9d00351c:	0f400cfd 	jal	9d0033f4 <adc_sample_convert>
9d003520:	00000000 	nop
9d003524:	af828030 	sw	v0,-32720(gp)
	if (StoringData) {
9d003528:	8f83801c 	lw	v1,-32740(gp)
9d00352c:	1060001e 	beqz	v1,9d0035a8 <Controller+0x14c>
9d003530:	8f838034 	lw	v1,-32716(gp)
		decctr++;
9d003534:	24630001 	addiu	v1,v1,1
		if (decctr == DECIMATION) { // after DECIMATION control loops,
9d003538:	2404000a 	li	a0,10
9d00353c:	14640014 	bne	v1,a0,9d003590 <Controller+0x134>
9d003540:	af838034 	sw	v1,-32716(gp)
			decctr = 0; // reset decimation counter
9d003544:	af808034 	sw	zero,-32716(gp)
			ADCarray[plotind] = adcval; // store data in global arrays
9d003548:	8f838038 	lw	v1,-32712(gp)
9d00354c:	00032080 	sll	a0,v1,0x2
9d003550:	3c05a000 	lui	a1,0xa000
9d003554:	24a50064 	addiu	a1,a1,100
9d003558:	00852821 	addu	a1,a0,a1
9d00355c:	aca20000 	sw	v0,0(a1)
			REFarray[plotind] = Waveform[counter];
9d003560:	8f858010 	lw	a1,-32752(gp)
9d003564:	00052880 	sll	a1,a1,0x2
9d003568:	3c02a000 	lui	v0,0xa000
9d00356c:	244206a4 	addiu	v0,v0,1700
9d003570:	00a21021 	addu	v0,a1,v0
9d003574:	8c420000 	lw	v0,0(v0)
9d003578:	3c05a000 	lui	a1,0xa000
9d00357c:	24a50384 	addiu	a1,a1,900
9d003580:	00852021 	addu	a0,a0,a1
9d003584:	ac820000 	sw	v0,0(a0)
			plotind++; // increment plot data index
9d003588:	24630001 	addiu	v1,v1,1
9d00358c:	af838038 	sw	v1,-32712(gp)
		}
		if (plotind == PLOTPTS) { // if max number of plot points plot is reached,
9d003590:	240200c8 	li	v0,200
9d003594:	8f838038 	lw	v1,-32712(gp)
9d003598:	14620004 	bne	v1,v0,9d0035ac <Controller+0x150>
9d00359c:	3c02bf88 	lui	v0,0xbf88
			plotind = 0; // reset the plot index
9d0035a0:	af808038 	sw	zero,-32712(gp)
			StoringData = 0; // tell main data is ready to be sent to Matlab
9d0035a4:	af80801c 	sw	zero,-32740(gp)
		}
	}

	IFS0bits.T2IF = 0;
9d0035a8:	3c02bf88 	lui	v0,0xbf88
9d0035ac:	8c431030 	lw	v1,4144(v0)
9d0035b0:	7c034204 	ins	v1,zero,0x8,0x1
9d0035b4:	ac431030 	sw	v1,4144(v0)
}
9d0035b8:	8fa2005c 	lw	v0,92(sp)
9d0035bc:	00400013 	mtlo	v0
9d0035c0:	8fa30058 	lw	v1,88(sp)
9d0035c4:	00600011 	mthi	v1
9d0035c8:	8fbf0054 	lw	ra,84(sp)
9d0035cc:	8fb90050 	lw	t9,80(sp)
9d0035d0:	8fb8004c 	lw	t8,76(sp)
9d0035d4:	8faf0048 	lw	t7,72(sp)
9d0035d8:	8fae0044 	lw	t6,68(sp)
9d0035dc:	8fad0040 	lw	t5,64(sp)
9d0035e0:	8fac003c 	lw	t4,60(sp)
9d0035e4:	8fab0038 	lw	t3,56(sp)
9d0035e8:	8faa0034 	lw	t2,52(sp)
9d0035ec:	8fa90030 	lw	t1,48(sp)
9d0035f0:	8fa8002c 	lw	t0,44(sp)
9d0035f4:	8fa70028 	lw	a3,40(sp)
9d0035f8:	8fa60024 	lw	a2,36(sp)
9d0035fc:	8fa50020 	lw	a1,32(sp)
9d003600:	8fa4001c 	lw	a0,28(sp)
9d003604:	8fa30018 	lw	v1,24(sp)
9d003608:	8fa20014 	lw	v0,20(sp)
9d00360c:	8fa10010 	lw	at,16(sp)
9d003610:	41606000 	di
9d003614:	000000c0 	ehb
9d003618:	8fba006c 	lw	k0,108(sp)
9d00361c:	8fbb0068 	lw	k1,104(sp)
9d003620:	409a7000 	mtc0	k0,c0_epc
9d003624:	8fba0064 	lw	k0,100(sp)
9d003628:	27bd0070 	addiu	sp,sp,112
9d00362c:	409a6002 	mtc0	k0,c0_srsctl
9d003630:	41dde800 	wrpgpr	sp,sp
9d003634:	409b6000 	mtc0	k1,c0_status
9d003638:	42000018 	eret

9d00363c <main>:



void main(void) {
9d00363c:	27bdff58 	addiu	sp,sp,-168
9d003640:	afbf00a4 	sw	ra,164(sp)
9d003644:	afb500a0 	sw	s5,160(sp)
9d003648:	afb4009c 	sw	s4,156(sp)
9d00364c:	afb30098 	sw	s3,152(sp)
9d003650:	afb20094 	sw	s2,148(sp)
9d003654:	afb10090 	sw	s1,144(sp)
	NU32_Startup(); // cache on, min flash wait, interrupts on, LED/button init, UART init
9d003658:	0f4015ea 	jal	9d0057a8 <NU32_Startup>
9d00365c:	afb0008c 	sw	s0,140(sp)
	LCD_Setup();
9d003660:	0f401240 	jal	9d004900 <LCD_Setup>
9d003664:	00000000 	nop

	char message[100]; // message to and from Matlab
	float kptemp = 0, kitemp = 0; // temporary local gains
9d003668:	00001021 	move	v0,zero
9d00366c:	afa2007c 	sw	v0,124(sp)
	int i = 0; // plot data loop counter
	makeWaveform();
9d003670:	0f400ce9 	jal	9d0033a4 <makeWaveform>
9d003674:	afa20080 	sw	v0,128(sp)

	__builtin_disable_interrupts(); // INT step 2: disable interrupts at CPU
9d003678:	41626000 	di	v0
9d00367c:	000000c0 	ehb
	T3CONbits.TCKPS = 3; //3// set prescaler to 256
9d003680:	3c04bf80 	lui	a0,0xbf80
9d003684:	8c820a00 	lw	v0,2560(a0)
9d003688:	24030003 	li	v1,3
9d00368c:	7c623104 	ins	v0,v1,0x4,0x3
9d003690:	ac820a00 	sw	v0,2560(a0)
	PR3 = 3999; //3999  set period register
9d003694:	24030f9f 	li	v1,3999
9d003698:	3c02bf80 	lui	v0,0xbf80
9d00369c:	ac430a20 	sw	v1,2592(v0)
	TMR3 = 0; // initialize count to 0
9d0036a0:	3c02bf80 	lui	v0,0xbf80
9d0036a4:	ac400a10 	sw	zero,2576(v0)
	OC1CONbits.OCM = 0b110;  // PWM mode without fault pin; other OC1CON bits are defaults
9d0036a8:	3c02bf80 	lui	v0,0xbf80
9d0036ac:	8c433000 	lw	v1,12288(v0)
9d0036b0:	24050006 	li	a1,6
9d0036b4:	7ca31004 	ins	v1,a1,0x0,0x3
9d0036b8:	ac433000 	sw	v1,12288(v0)
	OC1CONbits.OC32 = 0;
9d0036bc:	8c433000 	lw	v1,12288(v0)
9d0036c0:	7c032944 	ins	v1,zero,0x5,0x1
9d0036c4:	ac433000 	sw	v1,12288(v0)
	OC1CONbits.OCTSEL = 1;
9d0036c8:	8c453000 	lw	a1,12288(v0)
9d0036cc:	24030001 	li	v1,1
9d0036d0:	7c6518c4 	ins	a1,v1,0x3,0x1
9d0036d4:	ac453000 	sw	a1,12288(v0)
	OC1RS = 3000;
9d0036d8:	24060bb8 	li	a2,3000
9d0036dc:	3c05bf80 	lui	a1,0xbf80
9d0036e0:	aca63020 	sw	a2,12320(a1)
	OC1R = 500;
9d0036e4:	240601f4 	li	a2,500
9d0036e8:	3c05bf80 	lui	a1,0xbf80
9d0036ec:	aca63010 	sw	a2,12304(a1)
	T3CONbits.ON = 1; // turn on Timer3
9d0036f0:	8c850a00 	lw	a1,2560(a0)
9d0036f4:	7c657bc4 	ins	a1,v1,0xf,0x1
9d0036f8:	ac850a00 	sw	a1,2560(a0)
	OC1CONbits.ON = 1;
9d0036fc:	8c443000 	lw	a0,12288(v0)
9d003700:	7c647bc4 	ins	a0,v1,0xf,0x1
9d003704:	ac443000 	sw	a0,12288(v0)

	T2CONbits.TGATE = 0; // not gated input (the default)
9d003708:	3c02bf80 	lui	v0,0xbf80
9d00370c:	8c440800 	lw	a0,2048(v0)
9d003710:	7c0439c4 	ins	a0,zero,0x7,0x1
9d003714:	ac440800 	sw	a0,2048(v0)
	T2CONbits.TCS = 0; // PCBLK input (the default)
9d003718:	8c440800 	lw	a0,2048(v0)
9d00371c:	7c040844 	ins	a0,zero,0x1,0x1
9d003720:	ac440800 	sw	a0,2048(v0)
	T2CONbits.TCKPS = 2;
9d003724:	8c450800 	lw	a1,2048(v0)
9d003728:	24040002 	li	a0,2
9d00372c:	7c853104 	ins	a1,a0,0x4,0x3
9d003730:	ac450800 	sw	a1,2048(v0)
	PR2 = 99999;		//Set Timer 2 for 1kHz
9d003734:	3c060001 	lui	a2,0x1
9d003738:	34c6869f 	ori	a2,a2,0x869f
9d00373c:	3c05bf80 	lui	a1,0xbf80
9d003740:	aca60820 	sw	a2,2080(a1)
	T2CONbits.ON = 1; // turn on Timer3
9d003744:	8c450800 	lw	a1,2048(v0)
9d003748:	7c657bc4 	ins	a1,v1,0xf,0x1
9d00374c:	ac450800 	sw	a1,2048(v0)
	IPC2bits.T2IP = 5; // INT step 4: priority
9d003750:	3c02bf88 	lui	v0,0xbf88
9d003754:	8c4510b0 	lw	a1,4272(v0)
9d003758:	24060005 	li	a2,5
9d00375c:	7cc52084 	ins	a1,a2,0x2,0x3
9d003760:	ac4510b0 	sw	a1,4272(v0)
	IPC2bits.T2IS = 0; // subpriority
9d003764:	8c4510b0 	lw	a1,4272(v0)
9d003768:	7c050804 	ins	a1,zero,0x0,0x2
9d00376c:	ac4510b0 	sw	a1,4272(v0)
	IFS0bits.T2IF = 0; // INT step 5: clear interrupt flag
9d003770:	3c02bf88 	lui	v0,0xbf88
9d003774:	8c451030 	lw	a1,4144(v0)
9d003778:	7c054204 	ins	a1,zero,0x8,0x1
9d00377c:	ac451030 	sw	a1,4144(v0)
	IEC0bits.T2IE = 1; // INT step 6: enable interrupt
9d003780:	3c02bf88 	lui	v0,0xbf88
9d003784:	8c451060 	lw	a1,4192(v0)
9d003788:	7c654204 	ins	a1,v1,0x8,0x1
9d00378c:	ac451060 	sw	a1,4192(v0)

	__builtin_enable_interrupts(); // INT step 7: enable interrupts at CPU
9d003790:	41626020 	ei	v0


	AD1PCFGbits.PCFG0 = 0;
9d003794:	3c02bf81 	lui	v0,0xbf81
9d003798:	8c459060 	lw	a1,-28576(v0)
9d00379c:	7c050004 	ins	a1,zero,0x0,0x1
9d0037a0:	ac459060 	sw	a1,-28576(v0)
	AD1CON3bits.ADCS = 2;
9d0037a4:	3c02bf81 	lui	v0,0xbf81
9d0037a8:	a0449020 	sb	a0,-28640(v0)
	AD1CON1bits.ADON = 1;
9d0037ac:	3c02bf81 	lui	v0,0xbf81
9d0037b0:	8c449000 	lw	a0,-28672(v0)
9d0037b4:	7c647bc4 	ins	a0,v1,0xf,0x1
9d0037b8:	ac449000 	sw	a0,-28672(v0)

	while (1) {
		NU32_ReadUART1(message,99); // wait for a message from Matlab
		sscanf(message, "%f %f", &kptemp, &kitemp);
9d0037bc:	3c159d00 	lui	s5,0x9d00
9d0037c0:	26b579ec 	addiu	s5,s5,31212
		while (StoringData) { // wait until ISR says data storing done
			; // do nothing
		}
		for (i=0; i<PLOTPTS; i++) { // send plot data to Matlab
			// when first number sent = 1, done sending data
			sprintf(message, "%d %d %d\r\n", PLOTPTS-i, ADCarray[i], REFarray[i]);
9d0037c4:	3c12a000 	lui	s2,0xa000
9d0037c8:	26520064 	addiu	s2,s2,100
9d0037cc:	3c13a000 	lui	s3,0xa000
9d0037d0:	26730384 	addiu	s3,s3,900
9d0037d4:	3c149d00 	lui	s4,0x9d00
9d0037d8:	269479f4 	addiu	s4,s4,31220
	AD1PCFGbits.PCFG0 = 0;
	AD1CON3bits.ADCS = 2;
	AD1CON1bits.ADON = 1;

	while (1) {
		NU32_ReadUART1(message,99); // wait for a message from Matlab
9d0037dc:	27a40018 	addiu	a0,sp,24
9d0037e0:	0f401569 	jal	9d0055a4 <.LFE23>
9d0037e4:	24050063 	li	a1,99
		sscanf(message, "%f %f", &kptemp, &kitemp);
9d0037e8:	27a40018 	addiu	a0,sp,24
9d0037ec:	02a02821 	move	a1,s5
9d0037f0:	27a6007c 	addiu	a2,sp,124
9d0037f4:	0f401dba 	jal	9d0076e8 <_sscanf_fF>
9d0037f8:	27a70080 	addiu	a3,sp,128
		__builtin_disable_interrupts(); // keep ISR disabled as briefly as possible
9d0037fc:	41626000 	di	v0
9d003800:	000000c0 	ehb
		Kp = kptemp; // copy local variables to globals used by ISR
9d003804:	8fa2007c 	lw	v0,124(sp)
9d003808:	af828020 	sw	v0,-32736(gp)
		Ki = kitemp;
9d00380c:	8fa20080 	lw	v0,128(sp)
9d003810:	af828024 	sw	v0,-32732(gp)
		Eint = 0;
9d003814:	af808028 	sw	zero,-32728(gp)
		__builtin_enable_interrupts(); // only 2 simple C commands while ISRs disabled
9d003818:	41626020 	ei	v0
		StoringData = 1; // message to ISR to start storing data
9d00381c:	24020001 	li	v0,1
9d003820:	af82801c 	sw	v0,-32740(gp)
		printGainsToLCD();
9d003824:	0f400cc8 	jal	9d003320 <printGainsToLCD>
9d003828:	00000000 	nop
	    //LCD_WriteString((char *) Ki);
		while (StoringData) { // wait until ISR says data storing done
9d00382c:	8f82801c 	lw	v0,-32740(gp)
9d003830:	1440fffe 	bnez	v0,9d00382c <main+0x1f0>
9d003834:	241100c8 	li	s1,200
9d003838:	00008021 	move	s0,zero
			; // do nothing
		}
		for (i=0; i<PLOTPTS; i++) { // send plot data to Matlab
			// when first number sent = 1, done sending data
			sprintf(message, "%d %d %d\r\n", PLOTPTS-i, ADCarray[i], REFarray[i]);
9d00383c:	00101080 	sll	v0,s0,0x2
9d003840:	00521821 	addu	v1,v0,s2
9d003844:	8c670000 	lw	a3,0(v1)
9d003848:	00531021 	addu	v0,v0,s3
9d00384c:	8c420000 	lw	v0,0(v0)
9d003850:	afa20010 	sw	v0,16(sp)
9d003854:	27a40018 	addiu	a0,sp,24
9d003858:	02802821 	move	a1,s4
9d00385c:	0f401d70 	jal	9d0075c0 <_sprintf_cdnopuxX>
9d003860:	02303023 	subu	a2,s1,s0
			NU32_WriteUART1(message);
9d003864:	0f401587 	jal	9d00561c <NU32_WriteUART1>
9d003868:	27a40018 	addiu	a0,sp,24
		printGainsToLCD();
	    //LCD_WriteString((char *) Ki);
		while (StoringData) { // wait until ISR says data storing done
			; // do nothing
		}
		for (i=0; i<PLOTPTS; i++) { // send plot data to Matlab
9d00386c:	26100001 	addiu	s0,s0,1
9d003870:	1611fff3 	bne	s0,s1,9d003840 <main+0x204>
9d003874:	00101080 	sll	v0,s0,0x2
	AD1PCFGbits.PCFG0 = 0;
	AD1CON3bits.ADCS = 2;
	AD1CON1bits.ADON = 1;

	while (1) {
		NU32_ReadUART1(message,99); // wait for a message from Matlab
9d003878:	0b400df8 	j	9d0037e0 <main+0x1a4>
9d00387c:	27a40018 	addiu	a0,sp,24

Disassembly of section .text.dp32mul:

9d003880 <__divdf3>:
9d003880:	00055040 000a5542 00054ac0 00047d42     @P..BU...J..B}..
9d003890:	012f4825 000442c0 3c0e8000 012e4825     %H/..B.....<%H..
9d0038a0:	00076840 000d6d42 000762c0 00067d42     @h..Bm...b..B}..
9d0038b0:	018f6025 00065ac0 018e6025 00a72826     %`...Z..%`..&(..
9d0038c0:	00ae2824 254fffff 2de107fe 102000cb     $(....O%...-.. .
9d0038d0:	00000000                                ....

9d0038d4 <Dlab1>:
9d0038d4:	25afffff 	addiu	t7,t5,-1
9d0038d8:	2de107fe 	sltiu	at,t7,2046
9d0038dc:	102000f4 	beqz	at,9d003cb0 <DspecB>
9d0038e0:	00000000 	nop

9d0038e4 <Dlab2>:
9d0038e4:	014d5023 	subu	t2,t2,t5
9d0038e8:	254a03ff 	addiu	t2,t2,1023
9d0038ec:	00084042 	srl	t0,t0,0x1
9d0038f0:	00097fc0 	sll	t7,t1,0x1f
9d0038f4:	010f4025 	or	t0,t0,t7
9d0038f8:	00094842 	srl	t1,t1,0x1
9d0038fc:	000c3c02 	srl	a3,t4,0x10
9d003900:	00e001f4 	teq	a3,zero,0x7
9d003904:	0127001b 	divu	zero,t1,a3
9d003908:	00007012 	mflo	t6
9d00390c:	00004810 	mfhi	t1
9d003910:	3186ffff 	andi	a2,t4,0xffff
9d003914:	00ce0019 	multu	a2,t6
9d003918:	00002012 	mflo	a0
9d00391c:	00094c00 	sll	t1,t1,0x10
9d003920:	00087c02 	srl	t7,t0,0x10
9d003924:	012f4825 	or	t1,t1,t7
9d003928:	0124782b 	sltu	t7,t1,a0
9d00392c:	11e00006 	beqz	t7,9d003948 <i20>
9d003930:	01244823 	subu	t1,t1,a0

9d003934 <b21>:
9d003934:	25ceffff 	addiu	t6,t6,-1
9d003938:	012c4821 	addu	t1,t1,t4
9d00393c:	012c082b 	sltu	at,t1,t4
9d003940:	1020fffc 	beqz	at,9d003934 <b21>
9d003944:	00000000 	nop

9d003948 <i20>:
9d003948:	00e001f4 	teq	a3,zero,0x7
9d00394c:	0127001b 	divu	zero,t1,a3
9d003950:	00003812 	mflo	a3
9d003954:	00004810 	mfhi	t1
9d003958:	00c70019 	multu	a2,a3
9d00395c:	00002012 	mflo	a0
9d003960:	00094c00 	sll	t1,t1,0x10
9d003964:	310fffff 	andi	t7,t0,0xffff
9d003968:	012f4825 	or	t1,t1,t7
9d00396c:	0124782b 	sltu	t7,t1,a0
9d003970:	11e00006 	beqz	t7,9d00398c <i22>
9d003974:	01244823 	subu	t1,t1,a0

9d003978 <b23>:
9d003978:	24e7ffff 	addiu	a3,a3,-1
9d00397c:	012c4821 	addu	t1,t1,t4
9d003980:	012c082b 	sltu	at,t1,t4
9d003984:	1020fffc 	beqz	at,9d003978 <b23>
9d003988:	00000000 	nop

9d00398c <i22>:
9d00398c:	000e7400 	sll	t6,t6,0x10
9d003990:	01c77021 	addu	t6,t6,a3
9d003994:	01cb0019 	multu	t6,t3
9d003998:	00003812 	mflo	a3
9d00399c:	00002010 	mfhi	a0
9d0039a0:	24080000 	li	t0,0
9d0039a4:	0107782b 	sltu	t7,t0,a3
9d0039a8:	01074023 	subu	t0,t0,a3
9d0039ac:	012f102b 	sltu	v0,t1,t7
9d0039b0:	012f4823 	subu	t1,t1,t7
9d0039b4:	0124782b 	sltu	t7,t1,a0
9d0039b8:	01e27825 	or	t7,t7,v0
9d0039bc:	11e0000b 	beqz	t7,9d0039ec <i24>
9d0039c0:	01244823 	subu	t1,t1,a0

9d0039c4 <Dlab3>:
9d0039c4:	25ceffff 	addiu	t6,t6,-1
9d0039c8:	010b4021 	addu	t0,t0,t3
9d0039cc:	010b782b 	sltu	t7,t0,t3
9d0039d0:	012c4821 	addu	t1,t1,t4
9d0039d4:	012f4821 	addu	t1,t1,t7
9d0039d8:	112c0002 	beq	t1,t4,9d0039e4 <L31>
9d0039dc:	00000000 	nop
9d0039e0:	012c782b 	sltu	t7,t1,t4

9d0039e4 <L31>:
9d0039e4:	11e0fff7 	beqz	t7,9d0039c4 <Dlab3>
9d0039e8:	00000000 	nop

9d0039ec <i24>:
9d0039ec:	152c0006 	bne	t1,t4,9d003a08 <i25>
9d0039f0:	00000000 	nop
9d0039f4:	000b2025 	or	a0,zero,t3
9d0039f8:	00084825 	or	t1,zero,t0
9d0039fc:	240d0000 	li	t5,0
9d003a00:	1000002a 	b	9d003aac <e25>
9d003a04:	000d3825 	or	a3,zero,t5

9d003a08 <i25>:
9d003a08:	000c3c02 	srl	a3,t4,0x10
9d003a0c:	00e001f4 	teq	a3,zero,0x7
9d003a10:	0127001b 	divu	zero,t1,a3
9d003a14:	00006812 	mflo	t5
9d003a18:	00004810 	mfhi	t1
9d003a1c:	3186ffff 	andi	a2,t4,0xffff
9d003a20:	00cd0019 	multu	a2,t5
9d003a24:	00002012 	mflo	a0
9d003a28:	00094c00 	sll	t1,t1,0x10
9d003a2c:	00087c02 	srl	t7,t0,0x10
9d003a30:	012f4825 	or	t1,t1,t7
9d003a34:	0124782b 	sltu	t7,t1,a0
9d003a38:	11e00006 	beqz	t7,9d003a54 <i26>
9d003a3c:	01244823 	subu	t1,t1,a0

9d003a40 <b27>:
9d003a40:	25adffff 	addiu	t5,t5,-1
9d003a44:	012c4821 	addu	t1,t1,t4
9d003a48:	012c082b 	sltu	at,t1,t4
9d003a4c:	1020fffc 	beqz	at,9d003a40 <b27>
9d003a50:	00000000 	nop

9d003a54 <i26>:
9d003a54:	00e001f4 	teq	a3,zero,0x7
9d003a58:	0127001b 	divu	zero,t1,a3
9d003a5c:	00003812 	mflo	a3
9d003a60:	00004810 	mfhi	t1
9d003a64:	00c70019 	multu	a2,a3
9d003a68:	00002012 	mflo	a0
9d003a6c:	00094c00 	sll	t1,t1,0x10
9d003a70:	310fffff 	andi	t7,t0,0xffff
9d003a74:	012f4825 	or	t1,t1,t7
9d003a78:	0124782b 	sltu	t7,t1,a0
9d003a7c:	11e00006 	beqz	t7,9d003a98 <i28>
9d003a80:	01244823 	subu	t1,t1,a0

9d003a84 <b29>:
9d003a84:	24e7ffff 	addiu	a3,a3,-1
9d003a88:	012c4821 	addu	t1,t1,t4
9d003a8c:	012c082b 	sltu	at,t1,t4
9d003a90:	1020fffc 	beqz	at,9d003a84 <b29>
9d003a94:	00000000 	nop

9d003a98 <i28>:
9d003a98:	000d6c00 	sll	t5,t5,0x10
9d003a9c:	01a76821 	addu	t5,t5,a3
9d003aa0:	01ab0019 	multu	t5,t3
9d003aa4:	00003812 	mflo	a3
9d003aa8:	00002010 	mfhi	a0

9d003aac <e25>:
9d003aac:	24080000 	li	t0,0
9d003ab0:	0107782b 	sltu	t7,t0,a3
9d003ab4:	01074023 	subu	t0,t0,a3
9d003ab8:	012f102b 	sltu	v0,t1,t7
9d003abc:	012f4823 	subu	t1,t1,t7
9d003ac0:	0124782b 	sltu	t7,t1,a0
9d003ac4:	01e27825 	or	t7,t7,v0
9d003ac8:	11e0000b 	beqz	t7,9d003af8 <i30>
9d003acc:	01244823 	subu	t1,t1,a0

9d003ad0 <Dlab4>:
9d003ad0:	25adffff 	addiu	t5,t5,-1
9d003ad4:	010b4021 	addu	t0,t0,t3
9d003ad8:	010b782b 	sltu	t7,t0,t3
9d003adc:	012c4821 	addu	t1,t1,t4
9d003ae0:	012f4821 	addu	t1,t1,t7
9d003ae4:	112c0002 	beq	t1,t4,9d003af0 <L32>
9d003ae8:	00000000 	nop
9d003aec:	012c782b 	sltu	t7,t1,t4

9d003af0 <L32>:
9d003af0:	11e0fff7 	beqz	t7,9d003ad0 <Dlab4>
9d003af4:	00000000 	nop

9d003af8 <i30>:
9d003af8:	05c00006 	bltz	t6,9d003b14 <i31>
9d003afc:	00000000 	nop
9d003b00:	01a0782a 	slt	t7,t5,zero
9d003b04:	01ad6821 	addu	t5,t5,t5
9d003b08:	01ce7021 	addu	t6,t6,t6
9d003b0c:	01cf7021 	addu	t6,t6,t7
9d003b10:	254affff 	addiu	t2,t2,-1

9d003b14 <i31>:
9d003b14:	01287825 	or	t7,t1,t0
9d003b18:	11e00002 	beqz	t7,9d003b24 <i32>
9d003b1c:	00000000 	nop
9d003b20:	35ad0001 	ori	t5,t5,0x1

9d003b24 <i32>:
9d003b24:	000e4825 	or	t1,zero,t6
9d003b28:	000d4025 	or	t0,zero,t5
9d003b2c:	254fffff 	addiu	t7,t2,-1
9d003b30:	2de107fe 	sltiu	at,t7,2046
9d003b34:	10200015 	beqz	at,9d003b8c <Doveund>
9d003b38:	00000000 	nop
9d003b3c:	25080400 	addiu	t0,t0,1024
9d003b40:	2d0f0400 	sltiu	t7,t0,1024
9d003b44:	012f4821 	addu	t1,t1,t7
9d003b48:	012f782b 	sltu	t7,t1,t7
9d003b4c:	014f5021 	addu	t2,t2,t7

9d003b50 <Dlab8>:
9d003b50:	00087ac2 	srl	t7,t0,0xb
9d003b54:	31ef0001 	andi	t7,t7,0x1
9d003b58:	010f4023 	subu	t0,t0,t7
9d003b5c:	000822c2 	srl	a0,t0,0xb
9d003b60:	00097d40 	sll	t7,t1,0x15
9d003b64:	008f2025 	or	a0,a0,t7
9d003b68:	00097840 	sll	t7,t1,0x1
9d003b6c:	000f7b02 	srl	t7,t7,0xc
9d003b70:	00af2825 	or	a1,a1,t7
9d003b74:	000a7d00 	sll	t7,t2,0x14
9d003b78:	00af2825 	or	a1,a1,t7

9d003b7c <Dret>:
9d003b7c:	00041025 	or	v0,zero,a0
9d003b80:	00051825 	or	v1,zero,a1

9d003b84 <D999>:
9d003b84:	03e00008 	jr	ra
9d003b88:	00000000 	nop

9d003b8c <Doveund>:
9d003b8c:	1d400044 	bgtz	t2,9d003ca0 <Dinf>
9d003b90:	00000000 	nop
9d003b94:	240e0001 	li	t6,1
9d003b98:	01ca7023 	subu	t6,t6,t2

9d003b9c <L33>:
9d003b9c:	2dc10020 	sltiu	at,t6,32
9d003ba0:	14200007 	bnez	at,9d003bc0 <L34>
9d003ba4:	00000000 	nop
9d003ba8:	21ceffe0 	addi	t6,t6,-32
9d003bac:	0008202b 	sltu	a0,zero,t0
9d003bb0:	1009000d 	beq	zero,t1,9d003be8 <L35>
9d003bb4:	01244025 	or	t0,t1,a0
9d003bb8:	1000fff8 	b	9d003b9c <L33>
9d003bbc:	34090000 	li	t1,0x0

9d003bc0 <L34>:
9d003bc0:	11c00009 	beqz	t6,9d003be8 <L35>
9d003bc4:	00000000 	nop
9d003bc8:	000e3022 	neg	a2,t6
9d003bcc:	00c82004 	sllv	a0,t0,a2
9d003bd0:	00c93004 	sllv	a2,t1,a2
9d003bd4:	01c84006 	srlv	t0,t0,t6
9d003bd8:	01c94806 	srlv	t1,t1,t6
9d003bdc:	10800002 	beqz	a0,9d003be8 <L35>
9d003be0:	00c84025 	or	t0,a2,t0
9d003be4:	35080002 	ori	t0,t0,0x2

9d003be8 <L35>:
9d003be8:	25080400 	addiu	t0,t0,1024
9d003bec:	2d0f0400 	sltiu	t7,t0,1024
9d003bf0:	012f4821 	addu	t1,t1,t7
9d003bf4:	1000ffd6 	b	9d003b50 <Dlab8>
9d003bf8:	000957c2 	srl	t2,t1,0x1f

9d003bfc <DspecA>:
9d003bfc:	0100782a 	slt	t7,t0,zero
9d003c00:	01084021 	addu	t0,t0,t0
9d003c04:	01294821 	addu	t1,t1,t1
9d003c08:	15400017 	bnez	t2,9d003c68 <i33>
9d003c0c:	012f4821 	addu	t1,t1,t7
9d003c10:	01287825 	or	t7,t1,t0
9d003c14:	11e00014 	beqz	t7,9d003c68 <i33>
9d003c18:	00000000 	nop
9d003c1c:	15200008 	bnez	t1,9d003c40 <L36>
9d003c20:	00000000 	nop
9d003c24:	15000003 	bnez	t0,9d003c34 <L37>
9d003c28:	00000000 	nop
9d003c2c:	1000ff29 	b	9d0038d4 <Dlab1>
9d003c30:	240a0000 	li	t2,0

9d003c34 <L37>:
9d003c34:	01004825 	move	t1,t0
9d003c38:	24080000 	li	t0,0
9d003c3c:	254affe0 	addiu	t2,t2,-32

9d003c40 <L36>:
9d003c40:	712e7020 	clz	t6,t1
9d003c44:	11c0ff23 	beqz	t6,9d0038d4 <Dlab1>
9d003c48:	00000000 	nop
9d003c4c:	014e5023 	subu	t2,t2,t6
9d003c50:	000e3022 	neg	a2,t6
9d003c54:	00c83006 	srlv	a2,t0,a2
9d003c58:	01c84004 	sllv	t0,t0,t6
9d003c5c:	01c94804 	sllv	t1,t1,t6
9d003c60:	1000ff1c 	b	9d0038d4 <Dlab1>
9d003c64:	01264825 	or	t1,t1,a2

9d003c68 <i33>:
9d003c68:	154d0005 	bne	t2,t5,9d003c80 <i35>
9d003c6c:	00000000 	nop
9d003c70:	000c7840 	sll	t7,t4,0x1
9d003c74:	01eb7825 	or	t7,t7,t3
9d003c78:	11e0002b 	beqz	t7,9d003d28 <Dnan>
9d003c7c:	00000000 	nop

9d003c80 <i35>:
9d003c80:	240107ff 	li	at,2047
9d003c84:	11a1000a 	beq	t5,at,9d003cb0 <DspecB>
9d003c88:	00000000 	nop
9d003c8c:	1140ffbb 	beqz	t2,9d003b7c <Dret>
9d003c90:	00000000 	nop
9d003c94:	01287825 	or	t7,t1,t0
9d003c98:	15e00023 	bnez	t7,9d003d28 <Dnan>
9d003c9c:	00000000 	nop

9d003ca0 <Dinf>:
9d003ca0:	3c017ff0 	lui	at,0x7ff0
9d003ca4:	00a12825 	or	a1,a1,at
9d003ca8:	1000ffb4 	b	9d003b7c <Dret>
9d003cac:	24040000 	li	a0,0

9d003cb0 <DspecB>:
9d003cb0:	0160782a 	slt	t7,t3,zero
9d003cb4:	016b5821 	addu	t3,t3,t3
9d003cb8:	018c6021 	addu	t4,t4,t4
9d003cbc:	15a00017 	bnez	t5,9d003d1c <i36>
9d003cc0:	018f6021 	addu	t4,t4,t7
9d003cc4:	018b7825 	or	t7,t4,t3
9d003cc8:	11e0fff5 	beqz	t7,9d003ca0 <Dinf>
9d003ccc:	00000000 	nop
9d003cd0:	15800008 	bnez	t4,9d003cf4 <L39>
9d003cd4:	00000000 	nop
9d003cd8:	15600003 	bnez	t3,9d003ce8 <L40>
9d003cdc:	00000000 	nop
9d003ce0:	1000ff00 	b	9d0038e4 <Dlab2>
9d003ce4:	240d0000 	li	t5,0

9d003ce8 <L40>:
9d003ce8:	01606025 	move	t4,t3
9d003cec:	240b0000 	li	t3,0
9d003cf0:	25adffe0 	addiu	t5,t5,-32

9d003cf4 <L39>:
9d003cf4:	718e7020 	clz	t6,t4
9d003cf8:	11c0fefa 	beqz	t6,9d0038e4 <Dlab2>
9d003cfc:	00000000 	nop
9d003d00:	01ae6823 	subu	t5,t5,t6
9d003d04:	000e3022 	neg	a2,t6
9d003d08:	00cb3006 	srlv	a2,t3,a2
9d003d0c:	01cb5804 	sllv	t3,t3,t6
9d003d10:	01cc6004 	sllv	t4,t4,t6
9d003d14:	1000fef3 	b	9d0038e4 <Dlab2>
9d003d18:	01866025 	or	t4,t4,a2

9d003d1c <i36>:
9d003d1c:	018b7825 	or	t7,t4,t3
9d003d20:	11e00002 	beqz	t7,9d003d2c <i38>
9d003d24:	00000000 	nop

9d003d28 <Dnan>:
9d003d28:	3c05fff8 	lui	a1,0xfff8

9d003d2c <i38>:
9d003d2c:	1000ff93 	b	9d003b7c <Dret>
9d003d30:	24040000 	li	a0,0
9d003d34:	00000000 	nop

Disassembly of section .text:

9d003d38 <__udivdi3>:
9d003d38:	00c01021 	move	v0,a2
9d003d3c:	00804021 	move	t0,a0
9d003d40:	14e0003f 	bnez	a3,9d003e40 <__udivdi3+0x108>
9d003d44:	00a01821 	move	v1,a1
9d003d48:	00a6302b 	sltu	a2,a1,a2
9d003d4c:	10c0004c 	beqz	a2,9d003e80 <__udivdi3+0x148>
9d003d50:	00000000 	nop
9d003d54:	70442020 	clz	a0,v0
9d003d58:	50800008 	beqzl	a0,9d003d7c <__udivdi3+0x44>
9d003d5c:	00022402 	srl	a0,v0,0x10
9d003d60:	00042823 	negu	a1,a0
9d003d64:	00a82806 	srlv	a1,t0,a1
9d003d68:	00831804 	sllv	v1,v1,a0
9d003d6c:	00821004 	sllv	v0,v0,a0
9d003d70:	00a31825 	or	v1,a1,v1
9d003d74:	00884004 	sllv	t0,t0,a0
9d003d78:	00022402 	srl	a0,v0,0x10
9d003d7c:	0064001b 	divu	zero,v1,a0
9d003d80:	008001f4 	teq	a0,zero,0x7
9d003d84:	3049ffff 	andi	t1,v0,0xffff
9d003d88:	00085c02 	srl	t3,t0,0x10
9d003d8c:	00003812 	mflo	a3
9d003d90:	00005010 	mfhi	t2
9d003d94:	70e93002 	mul	a2,a3,t1
9d003d98:	000a2c00 	sll	a1,t2,0x10
9d003d9c:	00ab2825 	or	a1,a1,t3
9d003da0:	00a6502b 	sltu	t2,a1,a2
9d003da4:	0064001b 	divu	zero,v1,a0
9d003da8:	008001f4 	teq	a0,zero,0x7
9d003dac:	1140000b 	beqz	t2,9d003ddc <__udivdi3+0xa4>
9d003db0:	00a61823 	subu	v1,a1,a2
9d003db4:	00a22821 	addu	a1,a1,v0
9d003db8:	00a2182b 	sltu	v1,a1,v0
9d003dbc:	14600006 	bnez	v1,9d003dd8 <__udivdi3+0xa0>
9d003dc0:	24e7ffff 	addiu	a3,a3,-1
9d003dc4:	00a6182b 	sltu	v1,a1,a2
9d003dc8:	10600004 	beqz	v1,9d003ddc <__udivdi3+0xa4>
9d003dcc:	00a61823 	subu	v1,a1,a2
9d003dd0:	24e7ffff 	addiu	a3,a3,-1
9d003dd4:	00a22821 	addu	a1,a1,v0
9d003dd8:	00a61823 	subu	v1,a1,a2
9d003ddc:	0064001b 	divu	zero,v1,a0
9d003de0:	008001f4 	teq	a0,zero,0x7
9d003de4:	3108ffff 	andi	t0,t0,0xffff
9d003de8:	00002812 	mflo	a1
9d003dec:	00003010 	mfhi	a2
9d003df0:	70a94802 	mul	t1,a1,t1
9d003df4:	00063400 	sll	a2,a2,0x10
9d003df8:	00c84025 	or	t0,a2,t0
9d003dfc:	0109302b 	sltu	a2,t0,t1
9d003e00:	0064001b 	divu	zero,v1,a0
9d003e04:	008001f4 	teq	a0,zero,0x7
9d003e08:	10c00007 	beqz	a2,9d003e28 <__udivdi3+0xf0>
9d003e0c:	01024021 	addu	t0,t0,v0
9d003e10:	0102102b 	sltu	v0,t0,v0
9d003e14:	14400004 	bnez	v0,9d003e28 <__udivdi3+0xf0>
9d003e18:	24a5ffff 	addiu	a1,a1,-1
9d003e1c:	0109482b 	sltu	t1,t0,t1
9d003e20:	55200001 	bnezl	t1,9d003e28 <__udivdi3+0xf0>
9d003e24:	24a5ffff 	addiu	a1,a1,-1
9d003e28:	00073c00 	sll	a3,a3,0x10
9d003e2c:	00a72825 	or	a1,a1,a3
9d003e30:	00002021 	move	a0,zero
9d003e34:	00a01021 	move	v0,a1
9d003e38:	03e00008 	jr	ra
9d003e3c:	00801821 	move	v1,a0
9d003e40:	00a7102b 	sltu	v0,a1,a3
9d003e44:	54400048 	bnezl	v0,9d003f68 <__udivdi3+0x230>
9d003e48:	00002021 	move	a0,zero
9d003e4c:	70e31820 	clz	v1,a3
9d003e50:	14600049 	bnez	v1,9d003f78 <__udivdi3+0x240>
9d003e54:	240c0020 	li	t4,32
9d003e58:	00e5282b 	sltu	a1,a3,a1
9d003e5c:	14a00003 	bnez	a1,9d003e6c <__udivdi3+0x134>
9d003e60:	0086302b 	sltu	a2,a0,a2
9d003e64:	14c00086 	bnez	a2,9d004080 <__udivdi3+0x348>
9d003e68:	00002021 	move	a0,zero
9d003e6c:	00002021 	move	a0,zero
9d003e70:	24050001 	li	a1,1
9d003e74:	00a01021 	move	v0,a1
9d003e78:	03e00008 	jr	ra
9d003e7c:	00801821 	move	v1,a0
9d003e80:	14400006 	bnez	v0,9d003e9c <__udivdi3+0x164>
9d003e84:	70431820 	clz	v1,v0
9d003e88:	24030001 	li	v1,1
9d003e8c:	0062001b 	divu	zero,v1,v0
9d003e90:	004001f4 	teq	v0,zero,0x7
9d003e94:	00001012 	mflo	v0
9d003e98:	70431820 	clz	v1,v0
9d003e9c:	5460007b 	bnezl	v1,9d00408c <__udivdi3+0x354>
9d003ea0:	24080020 	li	t0,32
9d003ea4:	00a22823 	subu	a1,a1,v0
9d003ea8:	00023402 	srl	a2,v0,0x10
9d003eac:	3049ffff 	andi	t1,v0,0xffff
9d003eb0:	24040001 	li	a0,1
9d003eb4:	00a6001b 	divu	zero,a1,a2
9d003eb8:	00c001f4 	teq	a2,zero,0x7
9d003ebc:	00086402 	srl	t4,t0,0x10
9d003ec0:	00003812 	mflo	a3
9d003ec4:	00005810 	mfhi	t3
9d003ec8:	70e95002 	mul	t2,a3,t1
9d003ecc:	000b1c00 	sll	v1,t3,0x10
9d003ed0:	006c1825 	or	v1,v1,t4
9d003ed4:	006a582b 	sltu	t3,v1,t2
9d003ed8:	00a6001b 	divu	zero,a1,a2
9d003edc:	00c001f4 	teq	a2,zero,0x7
9d003ee0:	51600009 	beqzl	t3,9d003f08 <__udivdi3+0x1d0>
9d003ee4:	006a1823 	subu	v1,v1,t2
9d003ee8:	00621821 	addu	v1,v1,v0
9d003eec:	0062282b 	sltu	a1,v1,v0
9d003ef0:	14a00004 	bnez	a1,9d003f04 <__udivdi3+0x1cc>
9d003ef4:	24e7ffff 	addiu	a3,a3,-1
9d003ef8:	006a282b 	sltu	a1,v1,t2
9d003efc:	54a000a3 	bnezl	a1,9d00418c <__udivdi3+0x454>
9d003f00:	24e7ffff 	addiu	a3,a3,-1
9d003f04:	006a1823 	subu	v1,v1,t2
9d003f08:	0066001b 	divu	zero,v1,a2
9d003f0c:	00c001f4 	teq	a2,zero,0x7
9d003f10:	3108ffff 	andi	t0,t0,0xffff
9d003f14:	00002812 	mflo	a1
9d003f18:	00005010 	mfhi	t2
9d003f1c:	70a94802 	mul	t1,a1,t1
9d003f20:	000a5400 	sll	t2,t2,0x10
9d003f24:	01484025 	or	t0,t2,t0
9d003f28:	0109502b 	sltu	t2,t0,t1
9d003f2c:	0066001b 	divu	zero,v1,a2
9d003f30:	00c001f4 	teq	a2,zero,0x7
9d003f34:	11400007 	beqz	t2,9d003f54 <__udivdi3+0x21c>
9d003f38:	01024021 	addu	t0,t0,v0
9d003f3c:	0102102b 	sltu	v0,t0,v0
9d003f40:	14400004 	bnez	v0,9d003f54 <__udivdi3+0x21c>
9d003f44:	24a5ffff 	addiu	a1,a1,-1
9d003f48:	0109482b 	sltu	t1,t0,t1
9d003f4c:	55200001 	bnezl	t1,9d003f54 <__udivdi3+0x21c>
9d003f50:	24a5ffff 	addiu	a1,a1,-1
9d003f54:	00073c00 	sll	a3,a3,0x10
9d003f58:	00a72825 	or	a1,a1,a3
9d003f5c:	00a01021 	move	v0,a1
9d003f60:	03e00008 	jr	ra
9d003f64:	00801821 	move	v1,a0
9d003f68:	00002821 	move	a1,zero
9d003f6c:	00a01021 	move	v0,a1
9d003f70:	03e00008 	jr	ra
9d003f74:	00801821 	move	v1,a0
9d003f78:	01836023 	subu	t4,t4,v1
9d003f7c:	01864006 	srlv	t0,a2,t4
9d003f80:	00673804 	sllv	a3,a3,v1
9d003f84:	01074025 	or	t0,t0,a3
9d003f88:	00081402 	srl	v0,t0,0x10
9d003f8c:	01853806 	srlv	a3,a1,t4
9d003f90:	00e2001b 	divu	zero,a3,v0
9d003f94:	004001f4 	teq	v0,zero,0x7
9d003f98:	310dffff 	andi	t5,t0,0xffff
9d003f9c:	00652804 	sllv	a1,a1,v1
9d003fa0:	01846006 	srlv	t4,a0,t4
9d003fa4:	01856025 	or	t4,t4,a1
9d003fa8:	000c4c02 	srl	t1,t4,0x10
9d003fac:	00005812 	mflo	t3
9d003fb0:	00007810 	mfhi	t7
9d003fb4:	716d7002 	mul	t6,t3,t5
9d003fb8:	000f5400 	sll	t2,t7,0x10
9d003fbc:	01495025 	or	t2,t2,t1
9d003fc0:	014e282b 	sltu	a1,t2,t6
9d003fc4:	00e2001b 	divu	zero,a3,v0
9d003fc8:	004001f4 	teq	v0,zero,0x7
9d003fcc:	10a0000a 	beqz	a1,9d003ff8 <__udivdi3+0x2c0>
9d003fd0:	00663004 	sllv	a2,a2,v1
9d003fd4:	01485021 	addu	t2,t2,t0
9d003fd8:	0148282b 	sltu	a1,t2,t0
9d003fdc:	14a00006 	bnez	a1,9d003ff8 <__udivdi3+0x2c0>
9d003fe0:	256bffff 	addiu	t3,t3,-1
9d003fe4:	014e282b 	sltu	a1,t2,t6
9d003fe8:	50a00004 	beqzl	a1,9d003ffc <__udivdi3+0x2c4>
9d003fec:	014e5023 	subu	t2,t2,t6
9d003ff0:	256bffff 	addiu	t3,t3,-1
9d003ff4:	01485021 	addu	t2,t2,t0
9d003ff8:	014e5023 	subu	t2,t2,t6
9d003ffc:	0142001b 	divu	zero,t2,v0
9d004000:	004001f4 	teq	v0,zero,0x7
9d004004:	318cffff 	andi	t4,t4,0xffff
9d004008:	00002812 	mflo	a1
9d00400c:	00007010 	mfhi	t6
9d004010:	70ad6802 	mul	t5,a1,t5
9d004014:	000e4c00 	sll	t1,t6,0x10
9d004018:	012c4825 	or	t1,t1,t4
9d00401c:	012d382b 	sltu	a3,t1,t5
9d004020:	0142001b 	divu	zero,t2,v0
9d004024:	004001f4 	teq	v0,zero,0x7
9d004028:	50e0000b 	beqzl	a3,9d004058 <__udivdi3+0x320>
9d00402c:	000b5c00 	sll	t3,t3,0x10
9d004030:	01284821 	addu	t1,t1,t0
9d004034:	0128102b 	sltu	v0,t1,t0
9d004038:	14400006 	bnez	v0,9d004054 <__udivdi3+0x31c>
9d00403c:	24a5ffff 	addiu	a1,a1,-1
9d004040:	012d102b 	sltu	v0,t1,t5
9d004044:	50400004 	beqzl	v0,9d004058 <__udivdi3+0x320>
9d004048:	000b5c00 	sll	t3,t3,0x10
9d00404c:	24a5ffff 	addiu	a1,a1,-1
9d004050:	01284821 	addu	t1,t1,t0
9d004054:	000b5c00 	sll	t3,t3,0x10
9d004058:	00ab2825 	or	a1,a1,t3
9d00405c:	00a60019 	multu	a1,a2
9d004060:	012d4823 	subu	t1,t1,t5
9d004064:	00003810 	mfhi	a3
9d004068:	0127402b 	sltu	t0,t1,a3
9d00406c:	15000044 	bnez	t0,9d004180 <__udivdi3+0x448>
9d004070:	00003012 	mflo	a2
9d004074:	1127003f 	beq	t1,a3,9d004174 <__udivdi3+0x43c>
9d004078:	00642004 	sllv	a0,a0,v1
9d00407c:	00002021 	move	a0,zero
9d004080:	00a01021 	move	v0,a1
9d004084:	03e00008 	jr	ra
9d004088:	00801821 	move	v1,a0
9d00408c:	00621004 	sllv	v0,v0,v1
9d004090:	01034023 	subu	t0,t0,v1
9d004094:	01053806 	srlv	a3,a1,t0
9d004098:	00023402 	srl	a2,v0,0x10
9d00409c:	00e6001b 	divu	zero,a3,a2
9d0040a0:	00c001f4 	teq	a2,zero,0x7
9d0040a4:	01044006 	srlv	t0,a0,t0
9d0040a8:	00652804 	sllv	a1,a1,v1
9d0040ac:	3049ffff 	andi	t1,v0,0xffff
9d0040b0:	01052825 	or	a1,t0,a1
9d0040b4:	00644004 	sllv	t0,a0,v1
9d0040b8:	00056402 	srl	t4,a1,0x10
9d0040bc:	00005012 	mflo	t2
9d0040c0:	00005810 	mfhi	t3
9d0040c4:	71492002 	mul	a0,t2,t1
9d0040c8:	000b5c00 	sll	t3,t3,0x10
9d0040cc:	018b1825 	or	v1,t4,t3
9d0040d0:	0064582b 	sltu	t3,v1,a0
9d0040d4:	00e6001b 	divu	zero,a3,a2
9d0040d8:	00c001f4 	teq	a2,zero,0x7
9d0040dc:	5160000b 	beqzl	t3,9d00410c <__udivdi3+0x3d4>
9d0040e0:	00641823 	subu	v1,v1,a0
9d0040e4:	00621821 	addu	v1,v1,v0
9d0040e8:	0062382b 	sltu	a3,v1,v0
9d0040ec:	14e00006 	bnez	a3,9d004108 <__udivdi3+0x3d0>
9d0040f0:	254affff 	addiu	t2,t2,-1
9d0040f4:	0064382b 	sltu	a3,v1,a0
9d0040f8:	50e00004 	beqzl	a3,9d00410c <__udivdi3+0x3d4>
9d0040fc:	00641823 	subu	v1,v1,a0
9d004100:	254affff 	addiu	t2,t2,-1
9d004104:	00621821 	addu	v1,v1,v0
9d004108:	00641823 	subu	v1,v1,a0
9d00410c:	0066001b 	divu	zero,v1,a2
9d004110:	00c001f4 	teq	a2,zero,0x7
9d004114:	30a5ffff 	andi	a1,a1,0xffff
9d004118:	00002012 	mflo	a0
9d00411c:	00005810 	mfhi	t3
9d004120:	70893802 	mul	a3,a0,t1
9d004124:	000b5c00 	sll	t3,t3,0x10
9d004128:	01652825 	or	a1,t3,a1
9d00412c:	00a7582b 	sltu	t3,a1,a3
9d004130:	0066001b 	divu	zero,v1,a2
9d004134:	00c001f4 	teq	a2,zero,0x7
9d004138:	5160000b 	beqzl	t3,9d004168 <__udivdi3+0x430>
9d00413c:	000a5400 	sll	t2,t2,0x10
9d004140:	00a22821 	addu	a1,a1,v0
9d004144:	00a2182b 	sltu	v1,a1,v0
9d004148:	14600006 	bnez	v1,9d004164 <__udivdi3+0x42c>
9d00414c:	2484ffff 	addiu	a0,a0,-1
9d004150:	00a7182b 	sltu	v1,a1,a3
9d004154:	50600004 	beqzl	v1,9d004168 <__udivdi3+0x430>
9d004158:	000a5400 	sll	t2,t2,0x10
9d00415c:	2484ffff 	addiu	a0,a0,-1
9d004160:	00a22821 	addu	a1,a1,v0
9d004164:	000a5400 	sll	t2,t2,0x10
9d004168:	00a72823 	subu	a1,a1,a3
9d00416c:	0b400fad 	j	9d003eb4 <__udivdi3+0x17c>
9d004170:	008a2025 	or	a0,a0,t2
9d004174:	0086302b 	sltu	a2,a0,a2
9d004178:	50c0ffc1 	beqzl	a2,9d004080 <__udivdi3+0x348>
9d00417c:	00002021 	move	a0,zero
9d004180:	24a5ffff 	addiu	a1,a1,-1
9d004184:	0b401020 	j	9d004080 <__udivdi3+0x348>
9d004188:	00002021 	move	a0,zero
9d00418c:	0b400fc1 	j	9d003f04 <__udivdi3+0x1cc>
9d004190:	00621821 	addu	v1,v1,v0

9d004194 <__umoddi3>:
9d004194:	00c04821 	move	t1,a2
9d004198:	00804021 	move	t0,a0
9d00419c:	14e0003b 	bnez	a3,9d00428c <__umoddi3+0xf8>
9d0041a0:	00a01821 	move	v1,a1
9d0041a4:	00a6102b 	sltu	v0,a1,a2
9d0041a8:	10400048 	beqz	v0,9d0042cc <__umoddi3+0x138>
9d0041ac:	70c21020 	clz	v0,a2
9d0041b0:	10400008 	beqz	v0,9d0041d4 <__umoddi3+0x40>
9d0041b4:	00093c02 	srl	a3,t1,0x10
9d0041b8:	00022023 	negu	a0,v0
9d0041bc:	00882006 	srlv	a0,t0,a0
9d0041c0:	00451804 	sllv	v1,a1,v0
9d0041c4:	00464804 	sllv	t1,a2,v0
9d0041c8:	00831825 	or	v1,a0,v1
9d0041cc:	00484004 	sllv	t0,t0,v0
9d0041d0:	00093c02 	srl	a3,t1,0x10
9d0041d4:	0067001b 	divu	zero,v1,a3
9d0041d8:	00e001f4 	teq	a3,zero,0x7
9d0041dc:	312affff 	andi	t2,t1,0xffff
9d0041e0:	00082c02 	srl	a1,t0,0x10
9d0041e4:	00005812 	mflo	t3
9d0041e8:	00002010 	mfhi	a0
9d0041ec:	716a5802 	mul	t3,t3,t2
9d0041f0:	00043400 	sll	a2,a0,0x10
9d0041f4:	00c53025 	or	a2,a2,a1
9d0041f8:	00cb602b 	sltu	t4,a2,t3
9d0041fc:	0067001b 	divu	zero,v1,a3
9d004200:	00e001f4 	teq	a3,zero,0x7
9d004204:	11800009 	beqz	t4,9d00422c <__umoddi3+0x98>
9d004208:	00cb1823 	subu	v1,a2,t3
9d00420c:	00c93021 	addu	a2,a2,t1
9d004210:	00c9182b 	sltu	v1,a2,t1
9d004214:	14600005 	bnez	v1,9d00422c <__umoddi3+0x98>
9d004218:	00cb1823 	subu	v1,a2,t3
9d00421c:	00cb182b 	sltu	v1,a2,t3
9d004220:	54600001 	bnezl	v1,9d004228 <__umoddi3+0x94>
9d004224:	00c93021 	addu	a2,a2,t1
9d004228:	00cb1823 	subu	v1,a2,t3
9d00422c:	0067001b 	divu	zero,v1,a3
9d004230:	00e001f4 	teq	a3,zero,0x7
9d004234:	3108ffff 	andi	t0,t0,0xffff
9d004238:	00002012 	mflo	a0
9d00423c:	00002810 	mfhi	a1
9d004240:	708a5002 	mul	t2,a0,t2
9d004244:	00052c00 	sll	a1,a1,0x10
9d004248:	00a84025 	or	t0,a1,t0
9d00424c:	010a202b 	sltu	a0,t0,t2
9d004250:	0067001b 	divu	zero,v1,a3
9d004254:	00e001f4 	teq	a3,zero,0x7
9d004258:	50800009 	beqzl	a0,9d004280 <__umoddi3+0xec>
9d00425c:	010a4023 	subu	t0,t0,t2
9d004260:	01094021 	addu	t0,t0,t1
9d004264:	0109182b 	sltu	v1,t0,t1
9d004268:	54600005 	bnezl	v1,9d004280 <__umoddi3+0xec>
9d00426c:	010a4023 	subu	t0,t0,t2
9d004270:	010a182b 	sltu	v1,t0,t2
9d004274:	54600001 	bnezl	v1,9d00427c <__umoddi3+0xe8>
9d004278:	01094021 	addu	t0,t0,t1
9d00427c:	010a4023 	subu	t0,t0,t2
9d004280:	00481006 	srlv	v0,t0,v0
9d004284:	03e00008 	jr	ra
9d004288:	00001821 	move	v1,zero
9d00428c:	00a7102b 	sltu	v0,a1,a3
9d004290:	14400042 	bnez	v0,9d00439c <__umoddi3+0x208>
9d004294:	70ea5020 	clz	t2,a3
9d004298:	15400043 	bnez	t2,9d0043a8 <__umoddi3+0x214>
9d00429c:	240c0020 	li	t4,32
9d0042a0:	00e5102b 	sltu	v0,a3,a1
9d0042a4:	14400005 	bnez	v0,9d0042bc <__umoddi3+0x128>
9d0042a8:	00861023 	subu	v0,a0,a2
9d0042ac:	0086102b 	sltu	v0,a0,a2
9d0042b0:	544000c8 	bnezl	v0,9d0045d4 <__umoddi3+0x440>
9d0042b4:	00801021 	move	v0,a0
9d0042b8:	00861023 	subu	v0,a0,a2
9d0042bc:	00a72823 	subu	a1,a1,a3
9d0042c0:	0082202b 	sltu	a0,a0,v0
9d0042c4:	03e00008 	jr	ra
9d0042c8:	00a41823 	subu	v1,a1,a0
9d0042cc:	14c00006 	bnez	a2,9d0042e8 <__umoddi3+0x154>
9d0042d0:	71221020 	clz	v0,t1
9d0042d4:	24020001 	li	v0,1
9d0042d8:	0046001b 	divu	zero,v0,a2
9d0042dc:	00c001f4 	teq	a2,zero,0x7
9d0042e0:	00004812 	mflo	t1
9d0042e4:	71221020 	clz	v0,t1
9d0042e8:	5440007d 	bnezl	v0,9d0044e0 <__umoddi3+0x34c>
9d0042ec:	24080020 	li	t0,32
9d0042f0:	00a93023 	subu	a2,a1,t1
9d0042f4:	00091c02 	srl	v1,t1,0x10
9d0042f8:	312affff 	andi	t2,t1,0xffff
9d0042fc:	00c3001b 	divu	zero,a2,v1
9d004300:	006001f4 	teq	v1,zero,0x7
9d004304:	00086402 	srl	t4,t0,0x10
9d004308:	00002012 	mflo	a0
9d00430c:	00005810 	mfhi	t3
9d004310:	708a2002 	mul	a0,a0,t2
9d004314:	000b3c00 	sll	a3,t3,0x10
9d004318:	00ec3825 	or	a3,a3,t4
9d00431c:	00e4582b 	sltu	t3,a3,a0
9d004320:	00c3001b 	divu	zero,a2,v1
9d004324:	006001f4 	teq	v1,zero,0x7
9d004328:	11600009 	beqz	t3,9d004350 <__umoddi3+0x1bc>
9d00432c:	00e42823 	subu	a1,a3,a0
9d004330:	00e93821 	addu	a3,a3,t1
9d004334:	00e9282b 	sltu	a1,a3,t1
9d004338:	14a00005 	bnez	a1,9d004350 <__umoddi3+0x1bc>
9d00433c:	00e42823 	subu	a1,a3,a0
9d004340:	00e4282b 	sltu	a1,a3,a0
9d004344:	54a00001 	bnezl	a1,9d00434c <__umoddi3+0x1b8>
9d004348:	00e93821 	addu	a3,a3,t1
9d00434c:	00e42823 	subu	a1,a3,a0
9d004350:	00a3001b 	divu	zero,a1,v1
9d004354:	006001f4 	teq	v1,zero,0x7
9d004358:	3108ffff 	andi	t0,t0,0xffff
9d00435c:	00002012 	mflo	a0
9d004360:	00003010 	mfhi	a2
9d004364:	708a5002 	mul	t2,a0,t2
9d004368:	00063400 	sll	a2,a2,0x10
9d00436c:	00c84025 	or	t0,a2,t0
9d004370:	010a202b 	sltu	a0,t0,t2
9d004374:	00a3001b 	divu	zero,a1,v1
9d004378:	006001f4 	teq	v1,zero,0x7
9d00437c:	5080ffc0 	beqzl	a0,9d004280 <__umoddi3+0xec>
9d004380:	010a4023 	subu	t0,t0,t2
9d004384:	01094021 	addu	t0,t0,t1
9d004388:	0109182b 	sltu	v1,t0,t1
9d00438c:	5460ffbc 	bnezl	v1,9d004280 <__umoddi3+0xec>
9d004390:	010a4023 	subu	t0,t0,t2
9d004394:	0b40109d 	j	9d004274 <__umoddi3+0xe0>
9d004398:	010a182b 	sltu	v1,t0,t2
9d00439c:	00801021 	move	v0,a0
9d0043a0:	03e00008 	jr	ra
9d0043a4:	00a01821 	move	v1,a1
9d0043a8:	018a6023 	subu	t4,t4,t2
9d0043ac:	01473804 	sllv	a3,a3,t2
9d0043b0:	01865806 	srlv	t3,a2,t4
9d0043b4:	01675825 	or	t3,t3,a3
9d0043b8:	01856806 	srlv	t5,a1,t4
9d0043bc:	000b3c02 	srl	a3,t3,0x10
9d0043c0:	01a7001b 	divu	zero,t5,a3
9d0043c4:	00e001f4 	teq	a3,zero,0x7
9d0043c8:	316fffff 	andi	t7,t3,0xffff
9d0043cc:	01841006 	srlv	v0,a0,t4
9d0043d0:	01452804 	sllv	a1,a1,t2
9d0043d4:	00452825 	or	a1,v0,a1
9d0043d8:	00051402 	srl	v0,a1,0x10
9d0043dc:	01463004 	sllv	a2,a2,t2
9d0043e0:	00007012 	mflo	t6
9d0043e4:	00001810 	mfhi	v1
9d0043e8:	71cfc002 	mul	t8,t6,t7
9d0043ec:	00034c00 	sll	t1,v1,0x10
9d0043f0:	01224825 	or	t1,t1,v0
9d0043f4:	0138102b 	sltu	v0,t1,t8
9d0043f8:	01a7001b 	divu	zero,t5,a3
9d0043fc:	00e001f4 	teq	a3,zero,0x7
9d004400:	1040000a 	beqz	v0,9d00442c <__umoddi3+0x298>
9d004404:	01442004 	sllv	a0,a0,t2
9d004408:	012b4821 	addu	t1,t1,t3
9d00440c:	012b102b 	sltu	v0,t1,t3
9d004410:	14400006 	bnez	v0,9d00442c <__umoddi3+0x298>
9d004414:	25ceffff 	addiu	t6,t6,-1
9d004418:	0138102b 	sltu	v0,t1,t8
9d00441c:	50400004 	beqzl	v0,9d004430 <__umoddi3+0x29c>
9d004420:	01384823 	subu	t1,t1,t8
9d004424:	25ceffff 	addiu	t6,t6,-1
9d004428:	012b4821 	addu	t1,t1,t3
9d00442c:	01384823 	subu	t1,t1,t8
9d004430:	0127001b 	divu	zero,t1,a3
9d004434:	00e001f4 	teq	a3,zero,0x7
9d004438:	30a5ffff 	andi	a1,a1,0xffff
9d00443c:	00006812 	mflo	t5
9d004440:	00001810 	mfhi	v1
9d004444:	71af7802 	mul	t7,t5,t7
9d004448:	00031400 	sll	v0,v1,0x10
9d00444c:	00451025 	or	v0,v0,a1
9d004450:	004f182b 	sltu	v1,v0,t7
9d004454:	0127001b 	divu	zero,t1,a3
9d004458:	00e001f4 	teq	a3,zero,0x7
9d00445c:	1060000b 	beqz	v1,9d00448c <__umoddi3+0x2f8>
9d004460:	000e4400 	sll	t0,t6,0x10
9d004464:	004b1021 	addu	v0,v0,t3
9d004468:	004b182b 	sltu	v1,v0,t3
9d00446c:	14600007 	bnez	v1,9d00448c <__umoddi3+0x2f8>
9d004470:	25adffff 	addiu	t5,t5,-1
9d004474:	004f182b 	sltu	v1,v0,t7
9d004478:	10600005 	beqz	v1,9d004490 <__umoddi3+0x2fc>
9d00447c:	01a84025 	or	t0,t5,t0
9d004480:	25adffff 	addiu	t5,t5,-1
9d004484:	004b1021 	addu	v0,v0,t3
9d004488:	000e4400 	sll	t0,t6,0x10
9d00448c:	01a84025 	or	t0,t5,t0
9d004490:	01060019 	multu	t0,a2
9d004494:	004f7823 	subu	t7,v0,t7
9d004498:	00004810 	mfhi	t1
9d00449c:	00004012 	mflo	t0
9d0044a0:	01e9282b 	sltu	a1,t7,t1
9d0044a4:	01201821 	move	v1,t1
9d0044a8:	01203821 	move	a3,t1
9d0044ac:	14a00040 	bnez	a1,9d0045b0 <__umoddi3+0x41c>
9d0044b0:	00001012 	mflo	v0
9d0044b4:	51e90043 	beql	t7,t1,9d0045c4 <__umoddi3+0x430>
9d0044b8:	0082182b 	sltu	v1,a0,v0
9d0044bc:	01e31823 	subu	v1,t7,v1
9d0044c0:	00883023 	subu	a2,a0,t0
9d0044c4:	0086202b 	sltu	a0,a0,a2
9d0044c8:	00641823 	subu	v1,v1,a0
9d0044cc:	01836004 	sllv	t4,v1,t4
9d0044d0:	01461006 	srlv	v0,a2,t2
9d0044d4:	004c1025 	or	v0,v0,t4
9d0044d8:	03e00008 	jr	ra
9d0044dc:	01431806 	srlv	v1,v1,t2
9d0044e0:	01024023 	subu	t0,t0,v0
9d0044e4:	00494804 	sllv	t1,t1,v0
9d0044e8:	01053806 	srlv	a3,a1,t0
9d0044ec:	00091c02 	srl	v1,t1,0x10
9d0044f0:	00e3001b 	divu	zero,a3,v1
9d0044f4:	006001f4 	teq	v1,zero,0x7
9d0044f8:	312affff 	andi	t2,t1,0xffff
9d0044fc:	01046006 	srlv	t4,a0,t0
9d004500:	00452804 	sllv	a1,a1,v0
9d004504:	01856025 	or	t4,t4,a1
9d004508:	000c2c02 	srl	a1,t4,0x10
9d00450c:	00444004 	sllv	t0,a0,v0
9d004510:	00005812 	mflo	t3
9d004514:	00006810 	mfhi	t5
9d004518:	716a5802 	mul	t3,t3,t2
9d00451c:	000d6c00 	sll	t5,t5,0x10
9d004520:	00ad2025 	or	a0,a1,t5
9d004524:	008b282b 	sltu	a1,a0,t3
9d004528:	00e3001b 	divu	zero,a3,v1
9d00452c:	006001f4 	teq	v1,zero,0x7
9d004530:	50a00009 	beqzl	a1,9d004558 <__umoddi3+0x3c4>
9d004534:	008b2023 	subu	a0,a0,t3
9d004538:	00892021 	addu	a0,a0,t1
9d00453c:	0089282b 	sltu	a1,a0,t1
9d004540:	54a00005 	bnezl	a1,9d004558 <__umoddi3+0x3c4>
9d004544:	008b2023 	subu	a0,a0,t3
9d004548:	008b282b 	sltu	a1,a0,t3
9d00454c:	54a00001 	bnezl	a1,9d004554 <__umoddi3+0x3c0>
9d004550:	00892021 	addu	a0,a0,t1
9d004554:	008b2023 	subu	a0,a0,t3
9d004558:	0083001b 	divu	zero,a0,v1
9d00455c:	006001f4 	teq	v1,zero,0x7
9d004560:	318cffff 	andi	t4,t4,0xffff
9d004564:	00002812 	mflo	a1
9d004568:	00003810 	mfhi	a3
9d00456c:	70aa2802 	mul	a1,a1,t2
9d004570:	00073400 	sll	a2,a3,0x10
9d004574:	00cc3025 	or	a2,a2,t4
9d004578:	00c5382b 	sltu	a3,a2,a1
9d00457c:	0083001b 	divu	zero,a0,v1
9d004580:	006001f4 	teq	v1,zero,0x7
9d004584:	50e0ff5d 	beqzl	a3,9d0042fc <__umoddi3+0x168>
9d004588:	00c53023 	subu	a2,a2,a1
9d00458c:	00c93021 	addu	a2,a2,t1
9d004590:	00c9202b 	sltu	a0,a2,t1
9d004594:	5480ff59 	bnezl	a0,9d0042fc <__umoddi3+0x168>
9d004598:	00c53023 	subu	a2,a2,a1
9d00459c:	00c5202b 	sltu	a0,a2,a1
9d0045a0:	54800001 	bnezl	a0,9d0045a8 <__umoddi3+0x414>
9d0045a4:	00c93021 	addu	a2,a2,t1
9d0045a8:	0b4010bf 	j	9d0042fc <__umoddi3+0x168>
9d0045ac:	00c53023 	subu	a2,a2,a1
9d0045b0:	00464023 	subu	t0,v0,a2
9d0045b4:	00eb1823 	subu	v1,a3,t3
9d0045b8:	0048102b 	sltu	v0,v0,t0
9d0045bc:	0b40112f 	j	9d0044bc <__umoddi3+0x328>
9d0045c0:	00621823 	subu	v1,v1,v0
9d0045c4:	5460fffb 	bnezl	v1,9d0045b4 <__umoddi3+0x420>
9d0045c8:	00464023 	subu	t0,v0,a2
9d0045cc:	0b401130 	j	9d0044c0 <__umoddi3+0x32c>
9d0045d0:	00001821 	move	v1,zero
9d0045d4:	03e00008 	jr	ra
9d0045d8:	00000000 	nop

// wait for the peripheral master port (PMP) to be ready
// should be called before every read and write operation
static void waitPMP(void)
{
  while(PMMODEbits.BUSY) {
9d0045dc:	3c03bf80 	lui	v1,0xbf80
9d0045e0:	8c627010 	lw	v0,28688(v1)
9d0045e4:	30428000 	andi	v0,v0,0x8000
9d0045e8:	1440fffd 	bnez	v0,9d0045e0 <__umoddi3+0x44c>
9d0045ec:	00000000 	nop
    ;
  }
}
9d0045f0:	03e00008 	jr	ra
9d0045f4:	00000000 	nop

9d0045f8 <LCD_Read>:
  PMDIN = data;        // send the data
}

// read data from the LCD.  
// rs : the value of the RS signal 0 for instructions status, 1 for data
unsigned char LCD_Read(int rs) {
9d0045f8:	27bdffe0 	addiu	sp,sp,-32
9d0045fc:	afbf001c 	sw	ra,28(sp)
9d004600:	afb00018 	sw	s0,24(sp)
  volatile unsigned char val = 0; // volatile so the first read statement does not get optimized away
9d004604:	a3a00010 	sb	zero,16(sp)
  PMADDRbits.CS1 = rs;        // low to read command status, high to read data
9d004608:	3c02bf80 	lui	v0,0xbf80
9d00460c:	8c437020 	lw	v1,28704(v0)
9d004610:	7c837384 	ins	v1,a0,0xe,0x1
9d004614:	ac437020 	sw	v1,28704(v0)
  // from the PIC32 reference manual, you must read twice to actually get the data
  waitPMP();                  // wait for the PMP to be ready
9d004618:	0f401177 	jal	9d0045dc <__umoddi3+0x448>
9d00461c:	3c10bf80 	lui	s0,0xbf80
  val = PMDIN;
9d004620:	8e027040 	lw	v0,28736(s0)
9d004624:	304200ff 	andi	v0,v0,0xff
9d004628:	a3a20010 	sb	v0,16(sp)
  waitPMP();
9d00462c:	0f401177 	jal	9d0045dc <__umoddi3+0x448>
9d004630:	00000000 	nop
  val = PMDIN;
9d004634:	8e027040 	lw	v0,28736(s0)
9d004638:	304200ff 	andi	v0,v0,0xff
9d00463c:	a3a20010 	sb	v0,16(sp)
  return val;
9d004640:	93a20010 	lbu	v0,16(sp)
}
9d004644:	304200ff 	andi	v0,v0,0xff
9d004648:	8fbf001c 	lw	ra,28(sp)
9d00464c:	8fb00018 	lw	s0,24(sp)
9d004650:	03e00008 	jr	ra
9d004654:	27bd0020 	addiu	sp,sp,32

9d004658 <LCD_Write>:
}

// Write data to the LCD and wait for it to finish by checking the busy flag. 
// rs : the value of the RS signal, 0 for an instruction 1 for data
// data : the byte to send
void LCD_Write(int rs, unsigned char data) {
9d004658:	27bdffd8 	addiu	sp,sp,-40
9d00465c:	afbf0024 	sw	ra,36(sp)
9d004660:	afb10020 	sw	s1,32(sp)
9d004664:	afb0001c 	sw	s0,28(sp)
9d004668:	00808021 	move	s0,a0
9d00466c:	30b100ff 	andi	s1,a1,0xff


// wait for the lcd to finish its command.
// We check this by reading from the LCD
static void waitLCD() {
  volatile unsigned char val = 0x80;
9d004670:	2402ff80 	li	v0,-128
9d004674:	a3a20010 	sb	v0,16(sp)
  
  // Read from the LCD until the Busy flag (BF, 7th bit) is 0,
  while (val & 0x80) {
9d004678:	93a20010 	lbu	v0,16(sp)
9d00467c:	7c021420 	seb	v0,v0
9d004680:	04410008 	bgez	v0,9d0046a4 <LCD_Write+0x4c>
9d004684:	24020032 	li	v0,50
    val = LCD_Read(0);
9d004688:	0f40117e 	jal	9d0045f8 <LCD_Read>
9d00468c:	00002021 	move	a0,zero
9d004690:	a3a20010 	sb	v0,16(sp)
// We check this by reading from the LCD
static void waitLCD() {
  volatile unsigned char val = 0x80;
  
  // Read from the LCD until the Busy flag (BF, 7th bit) is 0,
  while (val & 0x80) {
9d004694:	93a20010 	lbu	v0,16(sp)
9d004698:	7c021420 	seb	v0,v0
9d00469c:	0440fffa 	bltz	v0,9d004688 <LCD_Write+0x30>
9d0046a0:	24020032 	li	v0,50
    val = LCD_Read(0);
  }
  int i = 0;
  for(i = 0; i < 50; ++i) {
    _nop();
9d0046a4:	00000040 	ssnop
9d0046a8:	2442ffff 	addiu	v0,v0,-1
  // Read from the LCD until the Busy flag (BF, 7th bit) is 0,
  while (val & 0x80) {
    val = LCD_Read(0);
  }
  int i = 0;
  for(i = 0; i < 50; ++i) {
9d0046ac:	1440fffd 	bnez	v0,9d0046a4 <LCD_Write+0x4c>
9d0046b0:	00000000 	nop
// Write data to the LCD and wait for it to finish by checking the busy flag. 
// rs : the value of the RS signal, 0 for an instruction 1 for data
// data : the byte to send
void LCD_Write(int rs, unsigned char data) {
  waitLCD();           // wait for the LCD to be ready
  PMADDRbits.CS1 = rs; // 0 for command, 1 for data
9d0046b4:	3c02bf80 	lui	v0,0xbf80
9d0046b8:	8c437020 	lw	v1,28704(v0)
9d0046bc:	7e037384 	ins	v1,s0,0xe,0x1
  waitPMP();           // Wait for the PMP to be ready
9d0046c0:	0f401177 	jal	9d0045dc <__umoddi3+0x448>
9d0046c4:	ac437020 	sw	v1,28704(v0)
  PMDIN = data;        // send the data
9d0046c8:	3c02bf80 	lui	v0,0xbf80
9d0046cc:	ac517040 	sw	s1,28736(v0)
}
9d0046d0:	8fbf0024 	lw	ra,36(sp)
9d0046d4:	8fb10020 	lw	s1,32(sp)
9d0046d8:	8fb0001c 	lw	s0,28(sp)
9d0046dc:	03e00008 	jr	ra
9d0046e0:	27bd0028 	addiu	sp,sp,40

9d0046e4 <LCD_WriteChar>:
void LCD_CMove(unsigned char addr) {
  LCD_Write(0, 0x40 | addr);
}

// Writes the character to the LCD at the current position
void LCD_WriteChar(char c) {         
9d0046e4:	27bdffe8 	addiu	sp,sp,-24
9d0046e8:	afbf0014 	sw	ra,20(sp)
  LCD_Write(1, c); 
9d0046ec:	308500ff 	andi	a1,a0,0xff
9d0046f0:	0f401196 	jal	9d004658 <LCD_Write>
9d0046f4:	24040001 	li	a0,1
}
9d0046f8:	8fbf0014 	lw	ra,20(sp)
9d0046fc:	03e00008 	jr	ra
9d004700:	27bd0018 	addiu	sp,sp,24

9d004704 <LCD_WriteString>:

// Write a string to the LCD starting at the current cursor
void LCD_WriteString(const char *str) {
9d004704:	27bdffe8 	addiu	sp,sp,-24
9d004708:	afbf0014 	sw	ra,20(sp)
9d00470c:	afb00010 	sw	s0,16(sp)
9d004710:	00808021 	move	s0,a0
  while(*str) {
9d004714:	80840000 	lb	a0,0(a0)
9d004718:	10800006 	beqz	a0,9d004734 <LCD_WriteString+0x30>
9d00471c:	8fbf0014 	lw	ra,20(sp)
    LCD_WriteChar(*str); // increment string pointer after char sent
9d004720:	0f4011b9 	jal	9d0046e4 <LCD_WriteChar>
9d004724:	26100001 	addiu	s0,s0,1
  LCD_Write(1, c); 
}

// Write a string to the LCD starting at the current cursor
void LCD_WriteString(const char *str) {
  while(*str) {
9d004728:	82040000 	lb	a0,0(s0)
9d00472c:	1480fffc 	bnez	a0,9d004720 <LCD_WriteString+0x1c>
9d004730:	8fbf0014 	lw	ra,20(sp)
    LCD_WriteChar(*str); // increment string pointer after char sent
    ++str;
  }
}
9d004734:	8fb00010 	lw	s0,16(sp)
9d004738:	03e00008 	jr	ra
9d00473c:	27bd0018 	addiu	sp,sp,24

9d004740 <LCD_CMove>:
}

// Sets the CGRAM address, used for creating custom
// characters
// addr address in the CGRAM to make current
void LCD_CMove(unsigned char addr) {
9d004740:	27bdffe8 	addiu	sp,sp,-24
9d004744:	afbf0014 	sw	ra,20(sp)
9d004748:	308500ff 	andi	a1,a0,0xff
  LCD_Write(0, 0x40 | addr);
9d00474c:	00002021 	move	a0,zero
9d004750:	0f401196 	jal	9d004658 <LCD_Write>
9d004754:	34a50040 	ori	a1,a1,0x40
}
9d004758:	8fbf0014 	lw	ra,20(sp)
9d00475c:	03e00008 	jr	ra
9d004760:	27bd0018 	addiu	sp,sp,24

9d004764 <LCD_CustomChar>:
// Make val a custom character.  This only implements 
// The small font version
// val : between 0 and 7
// data : 7 character array.  The first 5 bits of each character
//        determine whether that pixel is on or off
void LCD_CustomChar(unsigned char val, const char * data) {
9d004764:	27bdffd8 	addiu	sp,sp,-40
9d004768:	afbf0024 	sw	ra,36(sp)
9d00476c:	afb30020 	sw	s3,32(sp)
9d004770:	afb2001c 	sw	s2,28(sp)
9d004774:	afb10018 	sw	s1,24(sp)
9d004778:	afb00014 	sw	s0,20(sp)
9d00477c:	00a08821 	move	s1,a1
  int i = 0;
  for(i = 0; i < 7; ++i) {
    LCD_CMove(((val & 7) << 2) | i);
9d004780:	30840007 	andi	a0,a0,0x7
9d004784:	00049080 	sll	s2,a0,0x2
// val : between 0 and 7
// data : 7 character array.  The first 5 bits of each character
//        determine whether that pixel is on or off
void LCD_CustomChar(unsigned char val, const char * data) {
  int i = 0;
  for(i = 0; i < 7; ++i) {
9d004788:	00008021 	move	s0,zero
9d00478c:	24130007 	li	s3,7
    LCD_CMove(((val & 7) << 2) | i);
9d004790:	02502025 	or	a0,s2,s0
9d004794:	0f4011d0 	jal	9d004740 <LCD_CMove>
9d004798:	308400ff 	andi	a0,a0,0xff
// Make val a custom character.  This only implements 
// The small font version
// val : between 0 and 7
// data : 7 character array.  The first 5 bits of each character
//        determine whether that pixel is on or off
void LCD_CustomChar(unsigned char val, const char * data) {
9d00479c:	02301021 	addu	v0,s1,s0
  int i = 0;
  for(i = 0; i < 7; ++i) {
    LCD_CMove(((val & 7) << 2) | i);
    LCD_Write(1, data[i]);
9d0047a0:	24040001 	li	a0,1
9d0047a4:	0f401196 	jal	9d004658 <LCD_Write>
9d0047a8:	90450000 	lbu	a1,0(v0)
// val : between 0 and 7
// data : 7 character array.  The first 5 bits of each character
//        determine whether that pixel is on or off
void LCD_CustomChar(unsigned char val, const char * data) {
  int i = 0;
  for(i = 0; i < 7; ++i) {
9d0047ac:	26100001 	addiu	s0,s0,1
9d0047b0:	1613fff8 	bne	s0,s3,9d004794 <LCD_CustomChar+0x30>
9d0047b4:	02502025 	or	a0,s2,s0
    LCD_CMove(((val & 7) << 2) | i);
    LCD_Write(1, data[i]);
  }
}
9d0047b8:	8fbf0024 	lw	ra,36(sp)
9d0047bc:	8fb30020 	lw	s3,32(sp)
9d0047c0:	8fb2001c 	lw	s2,28(sp)
9d0047c4:	8fb10018 	lw	s1,24(sp)
9d0047c8:	8fb00014 	lw	s0,20(sp)
9d0047cc:	03e00008 	jr	ra
9d0047d0:	27bd0028 	addiu	sp,sp,40

9d0047d4 <LCD_Move>:

// Move the cursor to the desired line and column
// Does this by issuing a DDRAM Move instruction
// line : line 0 or line 1
// col  : the desired column
void LCD_Move(int line, int col) {
9d0047d4:	27bdffe8 	addiu	sp,sp,-24
9d0047d8:	afbf0014 	sw	ra,20(sp)
  LCD_Write(0, 0x80 | (line << 6) | col);
9d0047dc:	00042180 	sll	a0,a0,0x6
9d0047e0:	00852825 	or	a1,a0,a1
9d0047e4:	30a5007f 	andi	a1,a1,0x7f
9d0047e8:	00002021 	move	a0,zero
9d0047ec:	0f401196 	jal	9d004658 <LCD_Write>
9d0047f0:	34a50080 	ori	a1,a1,0x80
}
9d0047f4:	8fbf0014 	lw	ra,20(sp)
9d0047f8:	03e00008 	jr	ra
9d0047fc:	27bd0018 	addiu	sp,sp,24

9d004800 <LCD_Function>:
// Issue the LCD Functions set command
// This controls some LCD settings
// You may want to clear the screen after calling this
// n : 0 one line, 1 two lines
// f : 0 small font, 1 large font (only if n == 0)
void LCD_Function(int n, int f) {
9d004800:	27bdffe8 	addiu	sp,sp,-24
9d004804:	afbf0014 	sw	ra,20(sp)
  LCD_Write(0, 0x30 | (n << 3) | (f << 2));
9d004808:	000420c0 	sll	a0,a0,0x3
9d00480c:	34840030 	ori	a0,a0,0x30
9d004810:	00052880 	sll	a1,a1,0x2
9d004814:	00852825 	or	a1,a0,a1
9d004818:	00002021 	move	a0,zero
9d00481c:	0f401196 	jal	9d004658 <LCD_Write>
9d004820:	30a500fc 	andi	a1,a1,0xfc
}
9d004824:	8fbf0014 	lw	ra,20(sp)
9d004828:	03e00008 	jr	ra
9d00482c:	27bd0018 	addiu	sp,sp,24

9d004830 <LCD_Shift>:

// Issue the LCD display shift command
// Move the cursor or the display right or left
// sc : 0 shift cursor, 1 shift display
// rl : 0 to the left, 1 to the right
void LCD_Shift(int sc, int rl) {
9d004830:	27bdffe8 	addiu	sp,sp,-24
9d004834:	afbf0014 	sw	ra,20(sp)
  LCD_Write(0,0x1 | (sc << 3) | (rl << 2));
9d004838:	000420c0 	sll	a0,a0,0x3
9d00483c:	34840001 	ori	a0,a0,0x1
9d004840:	00052880 	sll	a1,a1,0x2
9d004844:	00852825 	or	a1,a0,a1
9d004848:	00002021 	move	a0,zero
9d00484c:	0f401196 	jal	9d004658 <LCD_Write>
9d004850:	30a500fd 	andi	a1,a1,0xfd
}
9d004854:	8fbf0014 	lw	ra,20(sp)
9d004858:	03e00008 	jr	ra
9d00485c:	27bd0018 	addiu	sp,sp,24

9d004860 <LCD_Display>:
// Issue the LCD Display command
// Changes display settings
// d : 1 display on, 0 display off
// c : 1 cursor on, 0 cursor off
// b : 1 cursor blinks, 0 cursor doesn't blink
void LCD_Display(int d, int c, int b) {
9d004860:	27bdffe8 	addiu	sp,sp,-24
9d004864:	afbf0014 	sw	ra,20(sp)
  LCD_Write(0, 0x08 | (d << 2) | (c << 1) | b);
9d004868:	00042080 	sll	a0,a0,0x2
9d00486c:	34840008 	ori	a0,a0,0x8
9d004870:	00052840 	sll	a1,a1,0x1
9d004874:	00852025 	or	a0,a0,a1
9d004878:	00862825 	or	a1,a0,a2
9d00487c:	00002021 	move	a0,zero
9d004880:	0f401196 	jal	9d004658 <LCD_Write>
9d004884:	30a500ff 	andi	a1,a1,0xff
}
9d004888:	8fbf0014 	lw	ra,20(sp)
9d00488c:	03e00008 	jr	ra
9d004890:	27bd0018 	addiu	sp,sp,24

9d004894 <LCD_Entry>:

// Issue the LCD entry mode set command
// This telss the LCD what to do after writing a character
// id : 1 increment cursor, 0 decrement cursor
// s : 1 shift display right, 0 don't shift display
void LCD_Entry(int id, int s) {
9d004894:	27bdffe8 	addiu	sp,sp,-24
9d004898:	afbf0014 	sw	ra,20(sp)
  LCD_Write(0, 0x04 | (id << 1) | s);
9d00489c:	00042040 	sll	a0,a0,0x1
9d0048a0:	00852825 	or	a1,a0,a1
9d0048a4:	34a50004 	ori	a1,a1,0x4
9d0048a8:	00002021 	move	a0,zero
9d0048ac:	0f401196 	jal	9d004658 <LCD_Write>
9d0048b0:	30a500ff 	andi	a1,a1,0xff
}
9d0048b4:	8fbf0014 	lw	ra,20(sp)
9d0048b8:	03e00008 	jr	ra
9d0048bc:	27bd0018 	addiu	sp,sp,24

9d0048c0 <LCD_Home>:
void LCD_Clear(void) {
  LCD_Write(0,0x01); //clear the whole screen
}

// Return the cursor and display to the home position (0,0)
void LCD_Home(void) {
9d0048c0:	27bdffe8 	addiu	sp,sp,-24
9d0048c4:	afbf0014 	sw	ra,20(sp)
  LCD_Write(0,0x02);
9d0048c8:	00002021 	move	a0,zero
9d0048cc:	0f401196 	jal	9d004658 <LCD_Write>
9d0048d0:	24050002 	li	a1,2
}
9d0048d4:	8fbf0014 	lw	ra,20(sp)
9d0048d8:	03e00008 	jr	ra
9d0048dc:	27bd0018 	addiu	sp,sp,24

9d0048e0 <LCD_Clear>:
    __builtin_enable_interrupts();
  }
}

// Clears the display and return to the home position (0,0)
void LCD_Clear(void) {
9d0048e0:	27bdffe8 	addiu	sp,sp,-24
9d0048e4:	afbf0014 	sw	ra,20(sp)
  LCD_Write(0,0x01); //clear the whole screen
9d0048e8:	00002021 	move	a0,zero
9d0048ec:	0f401196 	jal	9d004658 <LCD_Write>
9d0048f0:	24050001 	li	a1,1
}
9d0048f4:	8fbf0014 	lw	ra,20(sp)
9d0048f8:	03e00008 	jr	ra
9d0048fc:	27bd0018 	addiu	sp,sp,24

9d004900 <LCD_Setup>:
// pins RE0 - RE7 (PMD0 - PMD7) connect to LCD pins D0 - D7
// pin RD4 (PMENB) connects to LCD pin E
// pin RD5 (PMRD/PMWR) Connects to LCD pin R/W
// pin RD11 (PMA14) Connects to RS.
// interrupts will be disabled while this function executes
void LCD_Setup() {
9d004900:	27bdffe8 	addiu	sp,sp,-24
9d004904:	afbf0014 	sw	ra,20(sp)
9d004908:	afb00010 	sw	s0,16(sp)
  int en = __builtin_disable_interrupts();  // disable interrupts
9d00490c:	41706000 	di	s0
9d004910:	000000c0 	ehb
  
  IEC1bits.PMPIE = 0;    // disable PMP interrupts
9d004914:	3c02bf88 	lui	v0,0xbf88
9d004918:	8c431070 	lw	v1,4208(v0)
9d00491c:	7c031084 	ins	v1,zero,0x2,0x1
9d004920:	ac431070 	sw	v1,4208(v0)
  PMCON = 0;             // clear PMCON, like it is on reset
9d004924:	3c02bf80 	lui	v0,0xbf80
9d004928:	ac407000 	sw	zero,28672(v0)
  PMCONbits.PTWREN = 1;  // PMENB strobe enabled
9d00492c:	3c02bf80 	lui	v0,0xbf80
9d004930:	8c437000 	lw	v1,28672(v0)
9d004934:	24040001 	li	a0,1
9d004938:	7c834a44 	ins	v1,a0,0x9,0x1
9d00493c:	ac437000 	sw	v1,28672(v0)
  PMCONbits.PTRDEN = 1;  // PMRD/PMWR enabled
9d004940:	8c437000 	lw	v1,28672(v0)
9d004944:	7c834204 	ins	v1,a0,0x8,0x1
9d004948:	ac437000 	sw	v1,28672(v0)
  PMCONbits.WRSP = 1;    // Read/write strobe is active high
9d00494c:	8c437000 	lw	v1,28672(v0)
9d004950:	7c830844 	ins	v1,a0,0x1,0x1
9d004954:	ac437000 	sw	v1,28672(v0)
  PMCONbits.RDSP = 1;    // Read/write strobe is active high
9d004958:	8c437000 	lw	v1,28672(v0)
9d00495c:	7c830004 	ins	v1,a0,0x0,0x1
9d004960:	ac437000 	sw	v1,28672(v0)

  PMMODE = 0;            // clear PMMODE like it is on reset
9d004964:	3c03bf80 	lui	v1,0xbf80
9d004968:	ac607010 	sw	zero,28688(v1)
  PMMODEbits.MODE = 0x3; // set master mode 1, which uses a single strobe
9d00496c:	3c03bf80 	lui	v1,0xbf80
9d004970:	8c657010 	lw	a1,28688(v1)
9d004974:	24060003 	li	a2,3
9d004978:	7cc54a04 	ins	a1,a2,0x8,0x2
9d00497c:	ac657010 	sw	a1,28688(v1)
  // The cycle is started when reading from or writing to the PMDIN SFR.
  // Note that the wait states for writes start at 1 (except WAITE)
  // We add some extra wait states to make sure we meet the time and
  // account for variations in timing amongst different HD4780 compatible parts.
  // The timing we use here is for the KS066U which is faster than the HD4780
  PMMODEbits.WAITB = 0x3;  // Tas in the LCD datasheet is 60 ns 
9d004980:	8c657010 	lw	a1,28688(v1)
9d004984:	7cc53984 	ins	a1,a2,0x6,0x2
9d004988:	ac657010 	sw	a1,28688(v1)
  PMMODEbits.WAITM = 0xF;  // PWeh in the data sheet is 230 ns (we don't meet this but do our best)
9d00498c:	8c657010 	lw	a1,28688(v1)
9d004990:	2406000f 	li	a2,15
9d004994:	7cc52884 	ins	a1,a2,0x2,0x4
9d004998:	ac657010 	sw	a1,28688(v1)
                           // If not working for your LCD you may need to reduce PBCLK
  PMMODEbits.WAITE = 0x1;  // after E is low wait Tah (10ns)
9d00499c:	8c657010 	lw	a1,28688(v1)
9d0049a0:	7c850804 	ins	a1,a0,0x0,0x2
9d0049a4:	ac657010 	sw	a1,28688(v1)

  PMAENbits.PTEN14 = 1; // PMA14 is an adddress port
9d0049a8:	3c03bf80 	lui	v1,0xbf80
9d0049ac:	8c657050 	lw	a1,28752(v1)
9d0049b0:	7c857384 	ins	a1,a0,0xe,0x1
9d0049b4:	ac657050 	sw	a1,28752(v1)

  PMCONbits.ON = 1;      // enable the PMP peripheral
9d0049b8:	8c437000 	lw	v1,28672(v0)
9d0049bc:	7c837bc4 	ins	v1,a0,0xf,0x1
9d0049c0:	ac437000 	sw	v1,28672(v0)
  // perform the initialization sequence
  LCD_Function(1,0);     // 2 line mode, small font
9d0049c4:	0f401200 	jal	9d004800 <LCD_Function>
9d0049c8:	00002821 	move	a1,zero
  LCD_Display(1, 0, 0);  // Display ON/OFF control: display on cursor off blinking cursor off
9d0049cc:	24040001 	li	a0,1
9d0049d0:	00002821 	move	a1,zero
9d0049d4:	0f401218 	jal	9d004860 <LCD_Display>
9d0049d8:	00003021 	move	a2,zero
  LCD_Clear();          // clear the LCD 
9d0049dc:	0f401238 	jal	9d0048e0 <LCD_Clear>
9d0049e0:	32100001 	andi	s0,s0,0x1
  LCD_Entry(1, 0);       // Cursor moves left to right. do not shift the display
9d0049e4:	24040001 	li	a0,1
9d0049e8:	0f401225 	jal	9d004894 <LCD_Entry>
9d0049ec:	00002821 	move	a1,zero
  
  if(en & 0x1)          // if interrupts were enabled when calling this function, enable them
9d0049f0:	12000003 	beqz	s0,9d004a00 <LCD_Setup+0x100>
9d0049f4:	8fbf0014 	lw	ra,20(sp)
  {
    __builtin_enable_interrupts();
9d0049f8:	41626020 	ei	v0
  }
}
9d0049fc:	8fbf0014 	lw	ra,20(sp)
9d004a00:	8fb00010 	lw	s0,16(sp)
9d004a04:	03e00008 	jr	ra
9d004a08:	27bd0018 	addiu	sp,sp,24

Disassembly of section .text.dp32subadd:

9d004a0c <__subdf3>:
9d004a0c:	3c018000 00e13826                       ...<&8..

9d004a14 <__adddf3>:
9d004a14:	00055840 000b5d42 000552c0 00047d42     @X..B]...R..B}..
9d004a24:	014f5025 00044ac0 3c088000 01485025     %PO..J.....<%PH.
9d004a34:	00077040 000e7542 00076ac0 00067d42     @p..Bu...j..B}..
9d004a44:	01af6825 000662c0 01a86825 256fffff     %h...b..%h....o%
9d004a54:	2de107fe 1020008d 00000000              ...-.. .....

9d004a60 <Blab1>:
9d004a60:	25cfffff 	addiu	t7,t6,-1
9d004a64:	2de107fe 	sltiu	at,t7,2046
9d004a68:	102000bb 	beqz	at,9d004d58 <BspecB>
9d004a6c:	00000000 	nop

9d004a70 <Blab2>:
9d004a70:	3c018000 	lui	at,0x8000
9d004a74:	00a12824 	and	a1,a1,at
9d004a78:	016e4023 	subu	t0,t3,t6
9d004a7c:	1100002c 	beqz	t0,9d004b30 <Badd3>
9d004a80:	00000000 	nop
9d004a84:	19000015 	blez	t0,9d004adc <i1>
9d004a88:	00000000 	nop

9d004a8c <L1>:
9d004a8c:	2d010020 	sltiu	at,t0,32
9d004a90:	14200007 	bnez	at,9d004ab0 <L2>
9d004a94:	00000000 	nop
9d004a98:	2108ffe0 	addi	t0,t0,-32
9d004a9c:	000c302b 	sltu	a2,zero,t4
9d004aa0:	100d0023 	beq	zero,t5,9d004b30 <Badd3>
9d004aa4:	01a66025 	or	t4,t5,a2
9d004aa8:	1000fff8 	b	9d004a8c <L1>
9d004aac:	340d0000 	li	t5,0x0

9d004ab0 <L2>:
9d004ab0:	1100001f 	beqz	t0,9d004b30 <Badd3>
9d004ab4:	00000000 	nop
9d004ab8:	00082022 	neg	a0,t0
9d004abc:	008c3004 	sllv	a2,t4,a0
9d004ac0:	008d2004 	sllv	a0,t5,a0
9d004ac4:	010c6006 	srlv	t4,t4,t0
9d004ac8:	010d6806 	srlv	t5,t5,t0
9d004acc:	10c00018 	beqz	a2,9d004b30 <Badd3>
9d004ad0:	008c6025 	or	t4,a0,t4
9d004ad4:	10000016 	b	9d004b30 <Badd3>
9d004ad8:	358c0002 	ori	t4,t4,0x2

9d004adc <i1>:
9d004adc:	000e5825 	or	t3,zero,t6
9d004ae0:	00084023 	negu	t0,t0

9d004ae4 <L4>:
9d004ae4:	2d010020 	sltiu	at,t0,32
9d004ae8:	14200007 	bnez	at,9d004b08 <L5>
9d004aec:	00000000 	nop
9d004af0:	2108ffe0 	addi	t0,t0,-32
9d004af4:	0009302b 	sltu	a2,zero,t1
9d004af8:	100a000d 	beq	zero,t2,9d004b30 <Badd3>
9d004afc:	01464825 	or	t1,t2,a2
9d004b00:	1000fff8 	b	9d004ae4 <L4>
9d004b04:	340a0000 	li	t2,0x0

9d004b08 <L5>:
9d004b08:	11000009 	beqz	t0,9d004b30 <Badd3>
9d004b0c:	00000000 	nop
9d004b10:	00082022 	neg	a0,t0
9d004b14:	00893004 	sllv	a2,t1,a0
9d004b18:	008a2004 	sllv	a0,t2,a0
9d004b1c:	01094806 	srlv	t1,t1,t0
9d004b20:	010a5006 	srlv	t2,t2,t0
9d004b24:	10c00002 	beqz	a2,9d004b30 <Badd3>
9d004b28:	00894825 	or	t1,a0,t1
9d004b2c:	35290002 	ori	t1,t1,0x2

9d004b30 <Badd3>:
9d004b30:	00a77826 	xor	t7,a1,a3
9d004b34:	05e0001c 	bltz	t7,9d004ba8 <Bsub1>
9d004b38:	00000000 	nop
9d004b3c:	012c4821 	addu	t1,t1,t4
9d004b40:	012c782b 	sltu	t7,t1,t4
9d004b44:	014d5021 	addu	t2,t2,t5
9d004b48:	014f5021 	addu	t2,t2,t7
9d004b4c:	114d0002 	beq	t2,t5,9d004b58 <L7>
9d004b50:	00000000 	nop
9d004b54:	014d782b 	sltu	t7,t2,t5

9d004b58 <L7>:
9d004b58:	11e00037 	beqz	t7,9d004c38 <Bres>
9d004b5c:	00000000 	nop
9d004b60:	312f0001 	andi	t7,t1,0x1
9d004b64:	11e00002 	beqz	t7,9d004b70 <i3>
9d004b68:	00000000 	nop
9d004b6c:	35290002 	ori	t1,t1,0x2

9d004b70 <i3>:
9d004b70:	00094842 	srl	t1,t1,0x1
9d004b74:	000a7fc0 	sll	t7,t2,0x1f
9d004b78:	012f4825 	or	t1,t1,t7
9d004b7c:	000a5042 	srl	t2,t2,0x1
9d004b80:	3c018000 	lui	at,0x8000
9d004b84:	01415025 	or	t2,t2,at
9d004b88:	256b0001 	addiu	t3,t3,1
9d004b8c:	240107ff 	li	at,2047
9d004b90:	15610029 	bne	t3,at,9d004c38 <Bres>
9d004b94:	00000000 	nop
9d004b98:	3c017ff0 	lui	at,0x7ff0
9d004b9c:	00a12825 	or	a1,a1,at
9d004ba0:	10000037 	b	9d004c80 <BretA>
9d004ba4:	24040000 	li	a0,0

9d004ba8 <Bsub1>:
9d004ba8:	012c782b 	sltu	t7,t1,t4
9d004bac:	012c4823 	subu	t1,t1,t4
9d004bb0:	014f102b 	sltu	v0,t2,t7
9d004bb4:	014f5023 	subu	t2,t2,t7
9d004bb8:	014d782b 	sltu	t7,t2,t5
9d004bbc:	01e27825 	or	t7,t7,v0
9d004bc0:	11e00007 	beqz	t7,9d004be0 <i5>
9d004bc4:	014d5023 	subu	t2,t2,t5
9d004bc8:	3c018000 	lui	at,0x8000
9d004bcc:	00a12826 	xor	a1,a1,at
9d004bd0:	0009782b 	sltu	t7,zero,t1
9d004bd4:	00094823 	negu	t1,t1
9d004bd8:	000a5023 	negu	t2,t2
9d004bdc:	014f5023 	subu	t2,t2,t7

9d004be0 <i5>:
9d004be0:	15400008 	bnez	t2,9d004c04 <L8>
9d004be4:	00000000 	nop
9d004be8:	15200003 	bnez	t1,9d004bf8 <L9>
9d004bec:	00000000 	nop
9d004bf0:	1000000d 	b	9d004c28 <L10>
9d004bf4:	240b0000 	li	t3,0

9d004bf8 <L9>:
9d004bf8:	01205025 	move	t2,t1
9d004bfc:	24090000 	li	t1,0
9d004c00:	256bffe0 	addiu	t3,t3,-32

9d004c04 <L8>:
9d004c04:	71484020 	clz	t0,t2
9d004c08:	11000007 	beqz	t0,9d004c28 <L10>
9d004c0c:	00000000 	nop
9d004c10:	01685823 	subu	t3,t3,t0
9d004c14:	00082022 	neg	a0,t0
9d004c18:	00892006 	srlv	a0,t1,a0
9d004c1c:	01094804 	sllv	t1,t1,t0
9d004c20:	010a5004 	sllv	t2,t2,t0
9d004c24:	01445025 	or	t2,t2,a0

9d004c28 <L10>:
9d004c28:	01497825 	or	t7,t2,t1
9d004c2c:	15e00002 	bnez	t7,9d004c38 <Bres>
9d004c30:	00000000 	nop
9d004c34:	24050000 	li	a1,0

9d004c38 <Bres>:
9d004c38:	19600068 	blez	t3,9d004ddc <Bund>
9d004c3c:	00000000 	nop

9d004c40 <Blab8>:
9d004c40:	25290400 	addiu	t1,t1,1024
9d004c44:	2d2f0400 	sltiu	t7,t1,1024
9d004c48:	014f5021 	addu	t2,t2,t7
9d004c4c:	014f782b 	sltu	t7,t2,t7
9d004c50:	016f5821 	addu	t3,t3,t7
9d004c54:	00097ac2 	srl	t7,t1,0xb
9d004c58:	31ef0001 	andi	t7,t7,0x1
9d004c5c:	012f4823 	subu	t1,t1,t7
9d004c60:	000922c2 	srl	a0,t1,0xb
9d004c64:	000a7d40 	sll	t7,t2,0x15
9d004c68:	008f2025 	or	a0,a0,t7
9d004c6c:	000a7840 	sll	t7,t2,0x1
9d004c70:	000f7b02 	srl	t7,t7,0xc
9d004c74:	00af2825 	or	a1,a1,t7
9d004c78:	000b7d00 	sll	t7,t3,0x14
9d004c7c:	00af2825 	or	a1,a1,t7

9d004c80 <BretA>:
9d004c80:	00041025 	or	v0,zero,a0
9d004c84:	00051825 	or	v1,zero,a1

9d004c88 <B999>:
9d004c88:	03e00008 	jr	ra
9d004c8c:	00000000 	nop

9d004c90 <BspecA>:
9d004c90:	0120782a 	slt	t7,t1,zero
9d004c94:	01294821 	addu	t1,t1,t1
9d004c98:	014a5021 	addu	t2,t2,t2
9d004c9c:	15600023 	bnez	t3,9d004d2c <i7>
9d004ca0:	014f5021 	addu	t2,t2,t7
9d004ca4:	01497825 	or	t7,t2,t1
9d004ca8:	11e00014 	beqz	t7,9d004cfc <i8>
9d004cac:	00000000 	nop
9d004cb0:	15400008 	bnez	t2,9d004cd4 <L11>
9d004cb4:	00000000 	nop
9d004cb8:	15200003 	bnez	t1,9d004cc8 <L12>
9d004cbc:	00000000 	nop
9d004cc0:	1000ff67 	b	9d004a60 <Blab1>
9d004cc4:	240b0000 	li	t3,0

9d004cc8 <L12>:
9d004cc8:	01205025 	move	t2,t1
9d004ccc:	24090000 	li	t1,0
9d004cd0:	256bffe0 	addiu	t3,t3,-32

9d004cd4 <L11>:
9d004cd4:	71484020 	clz	t0,t2
9d004cd8:	1100ff61 	beqz	t0,9d004a60 <Blab1>
9d004cdc:	00000000 	nop
9d004ce0:	01685823 	subu	t3,t3,t0
9d004ce4:	00082022 	neg	a0,t0
9d004ce8:	00892006 	srlv	a0,t1,a0
9d004cec:	01094804 	sllv	t1,t1,t0
9d004cf0:	010a5004 	sllv	t2,t2,t0
9d004cf4:	1000ff5a 	b	9d004a60 <Blab1>
9d004cf8:	01445025 	or	t2,t2,a0

9d004cfc <i8>:
9d004cfc:	240107ff 	li	at,2047
9d004d00:	11c10015 	beq	t6,at,9d004d58 <BspecB>
9d004d04:	00000000 	nop
9d004d08:	00e74021 	addu	t0,a3,a3
9d004d0c:	01067825 	or	t7,t0,a2
9d004d10:	15e00003 	bnez	t7,9d004d20 <BretB>
9d004d14:	00000000 	nop
9d004d18:	04e0ffd9 	bltz	a3,9d004c80 <BretA>
9d004d1c:	00000000 	nop

9d004d20 <BretB>:
9d004d20:	00061025 	or	v0,zero,a2
9d004d24:	1000ffd8 	b	9d004c88 <B999>
9d004d28:	00071825 	or	v1,zero,a3

9d004d2c <i7>:
9d004d2c:	01497825 	or	t7,t2,t1
9d004d30:	15e00027 	bnez	t7,9d004dd0 <Bnan>
9d004d34:	00000000 	nop
9d004d38:	240107ff 	li	at,2047
9d004d3c:	15c1ffd0 	bne	t6,at,9d004c80 <BretA>
9d004d40:	00000000 	nop
9d004d44:	00a77826 	xor	t7,a1,a3
9d004d48:	05e00021 	bltz	t7,9d004dd0 <Bnan>
9d004d4c:	00000000 	nop
9d004d50:	1000fff3 	b	9d004d20 <BretB>
9d004d54:	00000000 	nop

9d004d58 <BspecB>:
9d004d58:	0180782a 	slt	t7,t4,zero
9d004d5c:	018c6021 	addu	t4,t4,t4
9d004d60:	01ad6821 	addu	t5,t5,t5
9d004d64:	15c00017 	bnez	t6,9d004dc4 <i11>
9d004d68:	01af6821 	addu	t5,t5,t7
9d004d6c:	01ac7825 	or	t7,t5,t4
9d004d70:	11e0ffc3 	beqz	t7,9d004c80 <BretA>
9d004d74:	00000000 	nop
9d004d78:	15a00008 	bnez	t5,9d004d9c <L14>
9d004d7c:	00000000 	nop
9d004d80:	15800003 	bnez	t4,9d004d90 <L15>
9d004d84:	00000000 	nop
9d004d88:	1000ff39 	b	9d004a70 <Blab2>
9d004d8c:	240e0000 	li	t6,0

9d004d90 <L15>:
9d004d90:	01806825 	move	t5,t4
9d004d94:	240c0000 	li	t4,0
9d004d98:	25ceffe0 	addiu	t6,t6,-32

9d004d9c <L14>:
9d004d9c:	71a84020 	clz	t0,t5
9d004da0:	1100ff33 	beqz	t0,9d004a70 <Blab2>
9d004da4:	00000000 	nop
9d004da8:	01c87023 	subu	t6,t6,t0
9d004dac:	00082022 	neg	a0,t0
9d004db0:	008c2006 	srlv	a0,t4,a0
9d004db4:	010c6004 	sllv	t4,t4,t0
9d004db8:	010d6804 	sllv	t5,t5,t0
9d004dbc:	1000ff2c 	b	9d004a70 <Blab2>
9d004dc0:	01a46825 	or	t5,t5,a0

9d004dc4 <i11>:
9d004dc4:	01ac7825 	or	t7,t5,t4
9d004dc8:	11e0ffd5 	beqz	t7,9d004d20 <BretB>
9d004dcc:	00000000 	nop

9d004dd0 <Bnan>:
9d004dd0:	3c05fff8 	lui	a1,0xfff8
9d004dd4:	1000ffaa 	b	9d004c80 <BretA>
9d004dd8:	24040000 	li	a0,0

9d004ddc <Bund>:
9d004ddc:	24080001 	li	t0,1
9d004de0:	010b4023 	subu	t0,t0,t3

9d004de4 <L17>:
9d004de4:	2d010020 	sltiu	at,t0,32
9d004de8:	14200007 	bnez	at,9d004e08 <L18>
9d004dec:	00000000 	nop
9d004df0:	2108ffe0 	addi	t0,t0,-32
9d004df4:	0009302b 	sltu	a2,zero,t1
9d004df8:	100a000d 	beq	zero,t2,9d004e30 <L19>
9d004dfc:	01464825 	or	t1,t2,a2
9d004e00:	1000fff8 	b	9d004de4 <L17>
9d004e04:	340a0000 	li	t2,0x0

9d004e08 <L18>:
9d004e08:	11000009 	beqz	t0,9d004e30 <L19>
9d004e0c:	00000000 	nop
9d004e10:	00082022 	neg	a0,t0
9d004e14:	00893004 	sllv	a2,t1,a0
9d004e18:	008a2004 	sllv	a0,t2,a0
9d004e1c:	01094806 	srlv	t1,t1,t0
9d004e20:	010a5006 	srlv	t2,t2,t0
9d004e24:	10c00002 	beqz	a2,9d004e30 <L19>
9d004e28:	00894825 	or	t1,a0,t1
9d004e2c:	35290002 	ori	t1,t1,0x2

9d004e30 <L19>:
9d004e30:	1000ff83 	b	9d004c40 <Blab8>
9d004e34:	240b0000 	li	t3,0
9d004e38:	00000000 	nop

Disassembly of section .text.__strtod:

9d004e3c <__strtod>:
9d004e3c:	27bdffc0 	addiu	sp,sp,-64
9d004e40:	afbe0038 	sw	s8,56(sp)
9d004e44:	afb5002c 	sw	s5,44(sp)
9d004e48:	afb30024 	sw	s3,36(sp)
9d004e4c:	afbf003c 	sw	ra,60(sp)
9d004e50:	afb70034 	sw	s7,52(sp)
9d004e54:	afb60030 	sw	s6,48(sp)
9d004e58:	afb40028 	sw	s4,40(sp)
9d004e5c:	afb20020 	sw	s2,32(sp)
9d004e60:	afb1001c 	sw	s1,28(sp)
9d004e64:	afb00018 	sw	s0,24(sp)
9d004e68:	80820000 	lb	v0,0(a0)
9d004e6c:	3c139d00 	lui	s3,0x9d00
9d004e70:	26736c44 	addiu	s3,s3,27716
9d004e74:	02621821 	addu	v1,s3,v0
9d004e78:	80630001 	lb	v1,1(v1)
9d004e7c:	0080a821 	move	s5,a0
9d004e80:	30630088 	andi	v1,v1,0x88
9d004e84:	106000db 	beqz	v1,9d0051f4 <__strtod+0x3b8>
9d004e88:	00a0f021 	move	s8,a1
9d004e8c:	00809021 	move	s2,a0
9d004e90:	26520001 	addiu	s2,s2,1
9d004e94:	82420000 	lb	v0,0(s2)
9d004e98:	02621821 	addu	v1,s3,v0
9d004e9c:	80630001 	lb	v1,1(v1)
9d004ea0:	30630088 	andi	v1,v1,0x88
9d004ea4:	5460fffb 	bnezl	v1,9d004e94 <__strtod+0x58>
9d004ea8:	26520001 	addiu	s2,s2,1
9d004eac:	2403002d 	li	v1,45
9d004eb0:	10430098 	beq	v0,v1,9d005114 <__strtod+0x2d8>
9d004eb4:	2403002b 	li	v1,43
9d004eb8:	504300bb 	beql	v0,v1,9d0051a8 <__strtod+0x36c>
9d004ebc:	26520001 	addiu	s2,s2,1
9d004ec0:	afa00010 	sw	zero,16(sp)
9d004ec4:	82420000 	lb	v0,0(s2)
9d004ec8:	02621821 	addu	v1,s3,v0
9d004ecc:	90630001 	lbu	v1,1(v1)
9d004ed0:	30630004 	andi	v1,v1,0x4
9d004ed4:	106000c3 	beqz	v1,9d0051e4 <__strtod+0x3a8>
9d004ed8:	00008021 	move	s0,zero
9d004edc:	00008821 	move	s1,zero
9d004ee0:	0000a021 	move	s4,zero
9d004ee4:	02202821 	move	a1,s1
9d004ee8:	2456ffd0 	addiu	s6,v0,-48
9d004eec:	02002021 	move	a0,s0
9d004ef0:	00003021 	move	a2,zero
9d004ef4:	0f401635 	jal	9d0058d4 <.LFE12>
9d004ef8:	3c074024 	lui	a3,0x4024
9d004efc:	02c02021 	move	a0,s6
9d004f00:	00408021 	move	s0,v0
9d004f04:	0f401d52 	jal	9d007548 <.LFE0>
9d004f08:	00608821 	move	s1,v1
9d004f0c:	00403021 	move	a2,v0
9d004f10:	02002021 	move	a0,s0
9d004f14:	02202821 	move	a1,s1
9d004f18:	0f401285 	jal	9d004a14 <__adddf3>
9d004f1c:	00603821 	move	a3,v1
9d004f20:	26520001 	addiu	s2,s2,1
9d004f24:	00408021 	move	s0,v0
9d004f28:	82420000 	lb	v0,0(s2)
9d004f2c:	00608821 	move	s1,v1
9d004f30:	02621821 	addu	v1,s3,v0
9d004f34:	90630001 	lbu	v1,1(v1)
9d004f38:	30630004 	andi	v1,v1,0x4
9d004f3c:	1460ffe9 	bnez	v1,9d004ee4 <__strtod+0xa8>
9d004f40:	0296a025 	or	s4,s4,s6
9d004f44:	24040001 	li	a0,1
9d004f48:	2403002e 	li	v1,46
9d004f4c:	50430049 	beql	v0,v1,9d005074 <__strtod+0x238>
9d004f50:	26520001 	addiu	s2,s2,1
9d004f54:	14800073 	bnez	a0,9d005124 <__strtod+0x2e8>
9d004f58:	0000b021 	move	s6,zero
9d004f5c:	13c00004 	beqz	s8,9d004f70 <__strtod+0x134>
9d004f60:	00000000 	nop
9d004f64:	50800041 	beqzl	a0,9d00506c <__strtod+0x230>
9d004f68:	02a09021 	move	s2,s5
9d004f6c:	afd20000 	sw	s2,0(s8)
9d004f70:	12c00023 	beqz	s6,9d005000 <__strtod+0x1c4>
9d004f74:	00000000 	nop
9d004f78:	06c00094 	bltz	s6,9d0051cc <__strtod+0x390>
9d004f7c:	02c0a821 	move	s5,s6
9d004f80:	3c139d00 	lui	s3,0x9d00
9d004f84:	26737818 	addiu	s3,s3,30744
9d004f88:	24120008 	li	s2,8
9d004f8c:	00001021 	move	v0,zero
9d004f90:	3c033ff0 	lui	v1,0x3ff0
9d004f94:	0b4013e9 	j	9d004fa4 <__strtod+0x168>
9d004f98:	2417ffff 	li	s7,-1
9d004f9c:	1257000c 	beq	s2,s7,9d004fd0 <__strtod+0x194>
9d004fa0:	2673fff8 	addiu	s3,s3,-8
9d004fa4:	02552007 	srav	a0,s5,s2
9d004fa8:	30840001 	andi	a0,a0,0x1
9d004fac:	1080fffb 	beqz	a0,9d004f9c <__strtod+0x160>
9d004fb0:	2652ffff 	addiu	s2,s2,-1
9d004fb4:	8e660040 	lw	a2,64(s3)
9d004fb8:	8e670044 	lw	a3,68(s3)
9d004fbc:	00402021 	move	a0,v0
9d004fc0:	0f401635 	jal	9d0058d4 <.LFE12>
9d004fc4:	00602821 	move	a1,v1
9d004fc8:	1657fff6 	bne	s2,s7,9d004fa4 <__strtod+0x168>
9d004fcc:	2673fff8 	addiu	s3,s3,-8
9d004fd0:	06c00077 	bltz	s6,9d0051b0 <__strtod+0x374>
9d004fd4:	02002021 	move	a0,s0
9d004fd8:	02202821 	move	a1,s1
9d004fdc:	00403021 	move	a2,v0
9d004fe0:	0f401635 	jal	9d0058d4 <.LFE12>
9d004fe4:	00603821 	move	a3,v1
9d004fe8:	00402021 	move	a0,v0
9d004fec:	00602821 	move	a1,v1
9d004ff0:	0f40182a 	jal	9d0060a8 <__ldexp>
9d004ff4:	02c03021 	move	a2,s6
9d004ff8:	00408021 	move	s0,v0
9d004ffc:	00608821 	move	s1,v1
9d005000:	12000087 	beqz	s0,9d005220 <__strtod+0x3e4>
9d005004:	7e22f000 	ext	v0,s1,0x0,0x1f
9d005008:	02111025 	or	v0,s0,s1
9d00500c:	1040007e 	beqz	v0,9d005208 <__strtod+0x3cc>
9d005010:	00000000 	nop
9d005014:	8fa20010 	lw	v0,16(sp)
9d005018:	10400007 	beqz	v0,9d005038 <__strtod+0x1fc>
9d00501c:	8fbf003c 	lw	ra,60(sp)
9d005020:	02002021 	move	a0,s0
9d005024:	0f401e9c 	jal	9d007a70 <.LFE1>
9d005028:	02202821 	move	a1,s1
9d00502c:	00408021 	move	s0,v0
9d005030:	00608821 	move	s1,v1
9d005034:	8fbf003c 	lw	ra,60(sp)
9d005038:	02001021 	move	v0,s0
9d00503c:	02201821 	move	v1,s1
9d005040:	8fbe0038 	lw	s8,56(sp)
9d005044:	8fb70034 	lw	s7,52(sp)
9d005048:	8fb60030 	lw	s6,48(sp)
9d00504c:	8fb5002c 	lw	s5,44(sp)
9d005050:	8fb40028 	lw	s4,40(sp)
9d005054:	8fb30024 	lw	s3,36(sp)
9d005058:	8fb20020 	lw	s2,32(sp)
9d00505c:	8fb1001c 	lw	s1,28(sp)
9d005060:	8fb00018 	lw	s0,24(sp)
9d005064:	03e00008 	jr	ra
9d005068:	27bd0040 	addiu	sp,sp,64
9d00506c:	0b4013dc 	j	9d004f70 <__strtod+0x134>
9d005070:	afd20000 	sw	s2,0(s8)
9d005074:	82430000 	lb	v1,0(s2)
9d005078:	02631021 	addu	v0,s3,v1
9d00507c:	90450001 	lbu	a1,1(v0)
9d005080:	30a50004 	andi	a1,a1,0x4
9d005084:	10a0ffb3 	beqz	a1,9d004f54 <__strtod+0x118>
9d005088:	00601021 	move	v0,v1
9d00508c:	0000b021 	move	s6,zero
9d005090:	02202821 	move	a1,s1
9d005094:	2477ffd0 	addiu	s7,v1,-48
9d005098:	02002021 	move	a0,s0
9d00509c:	00003021 	move	a2,zero
9d0050a0:	0f401635 	jal	9d0058d4 <.LFE12>
9d0050a4:	3c074024 	lui	a3,0x4024
9d0050a8:	02e02021 	move	a0,s7
9d0050ac:	00408021 	move	s0,v0
9d0050b0:	0f401d52 	jal	9d007548 <.LFE0>
9d0050b4:	00608821 	move	s1,v1
9d0050b8:	00403021 	move	a2,v0
9d0050bc:	02002021 	move	a0,s0
9d0050c0:	02202821 	move	a1,s1
9d0050c4:	0f401285 	jal	9d004a14 <__adddf3>
9d0050c8:	00603821 	move	a3,v1
9d0050cc:	26520001 	addiu	s2,s2,1
9d0050d0:	00608821 	move	s1,v1
9d0050d4:	82430000 	lb	v1,0(s2)
9d0050d8:	00408021 	move	s0,v0
9d0050dc:	02631021 	addu	v0,s3,v1
9d0050e0:	90420001 	lbu	v0,1(v0)
9d0050e4:	0297a025 	or	s4,s4,s7
9d0050e8:	30420004 	andi	v0,v0,0x4
9d0050ec:	1440ffe8 	bnez	v0,9d005090 <__strtod+0x254>
9d0050f0:	26d6ffff 	addiu	s6,s6,-1
9d0050f4:	24020065 	li	v0,101
9d0050f8:	5062000f 	beql	v1,v0,9d005138 <__strtod+0x2fc>
9d0050fc:	26520001 	addiu	s2,s2,1
9d005100:	24020045 	li	v0,69
9d005104:	1062000b 	beq	v1,v0,9d005134 <__strtod+0x2f8>
9d005108:	24040001 	li	a0,1
9d00510c:	0b4013d7 	j	9d004f5c <__strtod+0x120>
9d005110:	00000000 	nop
9d005114:	24020001 	li	v0,1
9d005118:	26520001 	addiu	s2,s2,1
9d00511c:	0b4013b1 	j	9d004ec4 <__strtod+0x88>
9d005120:	afa20010 	sw	v0,16(sp)
9d005124:	00401821 	move	v1,v0
9d005128:	24020065 	li	v0,101
9d00512c:	1462fff5 	bne	v1,v0,9d005104 <__strtod+0x2c8>
9d005130:	24020045 	li	v0,69
9d005134:	26520001 	addiu	s2,s2,1
9d005138:	82420000 	lb	v0,0(s2)
9d00513c:	2403002d 	li	v1,45
9d005140:	10430024 	beq	v0,v1,9d0051d4 <__strtod+0x398>
9d005144:	2403002b 	li	v1,43
9d005148:	5043002c 	beql	v0,v1,9d0051fc <__strtod+0x3c0>
9d00514c:	26520001 	addiu	s2,s2,1
9d005150:	00002821 	move	a1,zero
9d005154:	02621821 	addu	v1,s3,v0
9d005158:	90630001 	lbu	v1,1(v1)
9d00515c:	30630004 	andi	v1,v1,0x4
9d005160:	1060000c 	beqz	v1,9d005194 <__strtod+0x358>
9d005164:	00001821 	move	v1,zero
9d005168:	00032040 	sll	a0,v1,0x1
9d00516c:	000318c0 	sll	v1,v1,0x3
9d005170:	00831821 	addu	v1,a0,v1
9d005174:	26520001 	addiu	s2,s2,1
9d005178:	00621821 	addu	v1,v1,v0
9d00517c:	82420000 	lb	v0,0(s2)
9d005180:	02622021 	addu	a0,s3,v0
9d005184:	90840001 	lbu	a0,1(a0)
9d005188:	30840004 	andi	a0,a0,0x4
9d00518c:	1480fff6 	bnez	a0,9d005168 <__strtod+0x32c>
9d005190:	2463ffd0 	addiu	v1,v1,-48
9d005194:	54a00001 	bnezl	a1,9d00519c <__strtod+0x360>
9d005198:	00031823 	negu	v1,v1
9d00519c:	02c3b021 	addu	s6,s6,v1
9d0051a0:	0b4013d7 	j	9d004f5c <__strtod+0x120>
9d0051a4:	24040001 	li	a0,1
9d0051a8:	0b4013b1 	j	9d004ec4 <__strtod+0x88>
9d0051ac:	afa00010 	sw	zero,16(sp)
9d0051b0:	02202821 	move	a1,s1
9d0051b4:	00403021 	move	a2,v0
9d0051b8:	0f400e20 	jal	9d003880 <.LFE6>
9d0051bc:	00603821 	move	a3,v1
9d0051c0:	00402021 	move	a0,v0
9d0051c4:	0b4013fc 	j	9d004ff0 <__strtod+0x1b4>
9d0051c8:	00602821 	move	a1,v1
9d0051cc:	0b4013e0 	j	9d004f80 <__strtod+0x144>
9d0051d0:	0016a823 	negu	s5,s6
9d0051d4:	26520001 	addiu	s2,s2,1
9d0051d8:	82420000 	lb	v0,0(s2)
9d0051dc:	0b401455 	j	9d005154 <__strtod+0x318>
9d0051e0:	24050001 	li	a1,1
9d0051e4:	00008821 	move	s1,zero
9d0051e8:	00002021 	move	a0,zero
9d0051ec:	0b4013d2 	j	9d004f48 <__strtod+0x10c>
9d0051f0:	0000a021 	move	s4,zero
9d0051f4:	0b4013ab 	j	9d004eac <__strtod+0x70>
9d0051f8:	00809021 	move	s2,a0
9d0051fc:	82420000 	lb	v0,0(s2)
9d005200:	0b401455 	j	9d005154 <__strtod+0x318>
9d005204:	00002821 	move	a1,zero
9d005208:	1280ff83 	beqz	s4,9d005018 <__strtod+0x1dc>
9d00520c:	8fa20010 	lw	v0,16(sp)
9d005210:	24030022 	li	v1,34
9d005214:	3c02a000 	lui	v0,0xa000
9d005218:	0b401405 	j	9d005014 <__strtod+0x1d8>
9d00521c:	ac430060 	sw	v1,96(v0)
9d005220:	3c037ff0 	lui	v1,0x7ff0
9d005224:	1443ff79 	bne	v0,v1,9d00500c <__strtod+0x1d0>
9d005228:	02111025 	or	v0,s0,s1
9d00522c:	0b401485 	j	9d005214 <__strtod+0x3d8>
9d005230:	24030022 	li	v1,34

Disassembly of section .text.__strtof:

9d005234 <__strtof>:
9d005234:	27bdffc8 	addiu	sp,sp,-56
9d005238:	afb7002c 	sw	s7,44(sp)
9d00523c:	afb60028 	sw	s6,40(sp)
9d005240:	afb3001c 	sw	s3,28(sp)
9d005244:	afbf0034 	sw	ra,52(sp)
9d005248:	afbe0030 	sw	s8,48(sp)
9d00524c:	afb50024 	sw	s5,36(sp)
9d005250:	afb40020 	sw	s4,32(sp)
9d005254:	afb20018 	sw	s2,24(sp)
9d005258:	afb10014 	sw	s1,20(sp)
9d00525c:	afb00010 	sw	s0,16(sp)
9d005260:	80820000 	lb	v0,0(a0)
9d005264:	3c139d00 	lui	s3,0x9d00
9d005268:	26736c44 	addiu	s3,s3,27716
9d00526c:	02621821 	addu	v1,s3,v0
9d005270:	80630001 	lb	v1,1(v1)
9d005274:	0080b021 	move	s6,a0
9d005278:	30630088 	andi	v1,v1,0x88
9d00527c:	106000bf 	beqz	v1,9d00557c <__strtof+0x348>
9d005280:	00a0b821 	move	s7,a1
9d005284:	00808021 	move	s0,a0
9d005288:	26100001 	addiu	s0,s0,1
9d00528c:	82020000 	lb	v0,0(s0)
9d005290:	02621821 	addu	v1,s3,v0
9d005294:	80630001 	lb	v1,1(v1)
9d005298:	30630088 	andi	v1,v1,0x88
9d00529c:	5460fffb 	bnezl	v1,9d00528c <__strtof+0x58>
9d0052a0:	26100001 	addiu	s0,s0,1
9d0052a4:	2403002d 	li	v1,45
9d0052a8:	10430081 	beq	v0,v1,9d0054b0 <__strtof+0x27c>
9d0052ac:	2403002b 	li	v1,43
9d0052b0:	504300a3 	beql	v0,v1,9d005540 <__strtof+0x30c>
9d0052b4:	26100001 	addiu	s0,s0,1
9d0052b8:	0000f021 	move	s8,zero
9d0052bc:	82020000 	lb	v0,0(s0)
9d0052c0:	02621821 	addu	v1,s3,v0
9d0052c4:	90630001 	lbu	v1,1(v1)
9d0052c8:	30630004 	andi	v1,v1,0x4
9d0052cc:	106000a8 	beqz	v1,9d005570 <__strtof+0x33c>
9d0052d0:	00008821 	move	s1,zero
9d0052d4:	0000a021 	move	s4,zero
9d0052d8:	2452ffd0 	addiu	s2,v0,-48
9d0052dc:	02202021 	move	a0,s1
9d0052e0:	0f40189f 	jal	9d00627c <.LFE23>
9d0052e4:	3c054120 	lui	a1,0x4120
9d0052e8:	02402021 	move	a0,s2
9d0052ec:	0f401da2 	jal	9d007688 <.LFE1>
9d0052f0:	00408821 	move	s1,v0
9d0052f4:	00402821 	move	a1,v0
9d0052f8:	0f401702 	jal	9d005c08 <__addsf3>
9d0052fc:	02202021 	move	a0,s1
9d005300:	26100001 	addiu	s0,s0,1
9d005304:	00408821 	move	s1,v0
9d005308:	82020000 	lb	v0,0(s0)
9d00530c:	02621821 	addu	v1,s3,v0
9d005310:	90630001 	lbu	v1,1(v1)
9d005314:	30630004 	andi	v1,v1,0x4
9d005318:	1460ffef 	bnez	v1,9d0052d8 <__strtof+0xa4>
9d00531c:	0292a025 	or	s4,s4,s2
9d005320:	24040001 	li	a0,1
9d005324:	2403002e 	li	v1,46
9d005328:	5043003f 	beql	v0,v1,9d005428 <__strtof+0x1f4>
9d00532c:	26100001 	addiu	s0,s0,1
9d005330:	14800062 	bnez	a0,9d0054bc <__strtof+0x288>
9d005334:	00009021 	move	s2,zero
9d005338:	12e00004 	beqz	s7,9d00534c <__strtof+0x118>
9d00533c:	00000000 	nop
9d005340:	50800037 	beqzl	a0,9d005420 <__strtof+0x1ec>
9d005344:	02c08021 	move	s0,s6
9d005348:	aef00000 	sw	s0,0(s7)
9d00534c:	1240001d 	beqz	s2,9d0053c4 <__strtof+0x190>
9d005350:	00111840 	sll	v1,s1,0x1
9d005354:	06400080 	bltz	s2,9d005558 <__strtof+0x324>
9d005358:	0240a821 	move	s5,s2
9d00535c:	3c139d00 	lui	s3,0x9d00
9d005360:	26737bac 	addiu	s3,s3,31660
9d005364:	24100005 	li	s0,5
9d005368:	3c023f80 	lui	v0,0x3f80
9d00536c:	0b4014df 	j	9d00537c <__strtof+0x148>
9d005370:	2416ffff 	li	s6,-1
9d005374:	1216000a 	beq	s0,s6,9d0053a0 <__strtof+0x16c>
9d005378:	2673fffc 	addiu	s3,s3,-4
9d00537c:	02151807 	srav	v1,s5,s0
9d005380:	30630001 	andi	v1,v1,0x1
9d005384:	1060fffb 	beqz	v1,9d005374 <__strtof+0x140>
9d005388:	2610ffff 	addiu	s0,s0,-1
9d00538c:	8e650014 	lw	a1,20(s3)
9d005390:	0f40189f 	jal	9d00627c <.LFE23>
9d005394:	00402021 	move	a0,v0
9d005398:	1616fff8 	bne	s0,s6,9d00537c <__strtof+0x148>
9d00539c:	2673fffc 	addiu	s3,s3,-4
9d0053a0:	06400069 	bltz	s2,9d005548 <__strtof+0x314>
9d0053a4:	02202021 	move	a0,s1
9d0053a8:	0f40189f 	jal	9d00627c <.LFE23>
9d0053ac:	00402821 	move	a1,v0
9d0053b0:	00402021 	move	a0,v0
9d0053b4:	0f401b52 	jal	9d006d48 <__ldexpf>
9d0053b8:	02402821 	move	a1,s2
9d0053bc:	00408821 	move	s1,v0
9d0053c0:	00111840 	sll	v1,s1,0x1
9d0053c4:	3c02ff00 	lui	v0,0xff00
9d0053c8:	50620073 	beql	v1,v0,9d005598 <__strtof+0x364>
9d0053cc:	24030022 	li	v1,34
9d0053d0:	1220006f 	beqz	s1,9d005590 <__strtof+0x35c>
9d0053d4:	00000000 	nop
9d0053d8:	13c00005 	beqz	s8,9d0053f0 <__strtof+0x1bc>
9d0053dc:	8fbf0034 	lw	ra,52(sp)
9d0053e0:	0f401ef1 	jal	9d007bc4 <__negsf2>
9d0053e4:	02202021 	move	a0,s1
9d0053e8:	00408821 	move	s1,v0
9d0053ec:	8fbf0034 	lw	ra,52(sp)
9d0053f0:	02201021 	move	v0,s1
9d0053f4:	8fbe0030 	lw	s8,48(sp)
9d0053f8:	8fb7002c 	lw	s7,44(sp)
9d0053fc:	8fb60028 	lw	s6,40(sp)
9d005400:	8fb50024 	lw	s5,36(sp)
9d005404:	8fb40020 	lw	s4,32(sp)
9d005408:	8fb3001c 	lw	s3,28(sp)
9d00540c:	8fb20018 	lw	s2,24(sp)
9d005410:	8fb10014 	lw	s1,20(sp)
9d005414:	8fb00010 	lw	s0,16(sp)
9d005418:	03e00008 	jr	ra
9d00541c:	27bd0038 	addiu	sp,sp,56
9d005420:	0b4014d3 	j	9d00534c <__strtof+0x118>
9d005424:	aef00000 	sw	s0,0(s7)
9d005428:	82030000 	lb	v1,0(s0)
9d00542c:	02631021 	addu	v0,s3,v1
9d005430:	90450001 	lbu	a1,1(v0)
9d005434:	30a50004 	andi	a1,a1,0x4
9d005438:	10a0ffbd 	beqz	a1,9d005330 <__strtof+0xfc>
9d00543c:	00601021 	move	v0,v1
9d005440:	00009021 	move	s2,zero
9d005444:	2475ffd0 	addiu	s5,v1,-48
9d005448:	02202021 	move	a0,s1
9d00544c:	0f40189f 	jal	9d00627c <.LFE23>
9d005450:	3c054120 	lui	a1,0x4120
9d005454:	02a02021 	move	a0,s5
9d005458:	0f401da2 	jal	9d007688 <.LFE1>
9d00545c:	00408821 	move	s1,v0
9d005460:	00402821 	move	a1,v0
9d005464:	02202021 	move	a0,s1
9d005468:	0f401702 	jal	9d005c08 <__addsf3>
9d00546c:	26100001 	addiu	s0,s0,1
9d005470:	82030000 	lb	v1,0(s0)
9d005474:	00408821 	move	s1,v0
9d005478:	02631021 	addu	v0,s3,v1
9d00547c:	90420001 	lbu	v0,1(v0)
9d005480:	0295a025 	or	s4,s4,s5
9d005484:	30420004 	andi	v0,v0,0x4
9d005488:	1440ffee 	bnez	v0,9d005444 <__strtof+0x210>
9d00548c:	2652ffff 	addiu	s2,s2,-1
9d005490:	24020065 	li	v0,101
9d005494:	5062000e 	beql	v1,v0,9d0054d0 <__strtof+0x29c>
9d005498:	26100001 	addiu	s0,s0,1
9d00549c:	24020045 	li	v0,69
9d0054a0:	1062000a 	beq	v1,v0,9d0054cc <__strtof+0x298>
9d0054a4:	24040001 	li	a0,1
9d0054a8:	0b4014ce 	j	9d005338 <__strtof+0x104>
9d0054ac:	00000000 	nop
9d0054b0:	26100001 	addiu	s0,s0,1
9d0054b4:	0b4014af 	j	9d0052bc <__strtof+0x88>
9d0054b8:	241e0001 	li	s8,1
9d0054bc:	00401821 	move	v1,v0
9d0054c0:	24020065 	li	v0,101
9d0054c4:	1462fff6 	bne	v1,v0,9d0054a0 <__strtof+0x26c>
9d0054c8:	24020045 	li	v0,69
9d0054cc:	26100001 	addiu	s0,s0,1
9d0054d0:	82020000 	lb	v0,0(s0)
9d0054d4:	2403002d 	li	v1,45
9d0054d8:	10430021 	beq	v0,v1,9d005560 <__strtof+0x32c>
9d0054dc:	2403002b 	li	v1,43
9d0054e0:	50430028 	beql	v0,v1,9d005584 <__strtof+0x350>
9d0054e4:	26100001 	addiu	s0,s0,1
9d0054e8:	00002821 	move	a1,zero
9d0054ec:	02621821 	addu	v1,s3,v0
9d0054f0:	90630001 	lbu	v1,1(v1)
9d0054f4:	30630004 	andi	v1,v1,0x4
9d0054f8:	1060000c 	beqz	v1,9d00552c <__strtof+0x2f8>
9d0054fc:	00001821 	move	v1,zero
9d005500:	00032040 	sll	a0,v1,0x1
9d005504:	000318c0 	sll	v1,v1,0x3
9d005508:	00831821 	addu	v1,a0,v1
9d00550c:	26100001 	addiu	s0,s0,1
9d005510:	00621821 	addu	v1,v1,v0
9d005514:	82020000 	lb	v0,0(s0)
9d005518:	02622021 	addu	a0,s3,v0
9d00551c:	90840001 	lbu	a0,1(a0)
9d005520:	30840004 	andi	a0,a0,0x4
9d005524:	1480fff6 	bnez	a0,9d005500 <__strtof+0x2cc>
9d005528:	2463ffd0 	addiu	v1,v1,-48
9d00552c:	54a00001 	bnezl	a1,9d005534 <__strtof+0x300>
9d005530:	00031823 	negu	v1,v1
9d005534:	02439021 	addu	s2,s2,v1
9d005538:	0b4014ce 	j	9d005338 <__strtof+0x104>
9d00553c:	24040001 	li	a0,1
9d005540:	0b4014af 	j	9d0052bc <__strtof+0x88>
9d005544:	0000f021 	move	s8,zero
9d005548:	0f40179e 	jal	9d005e78 <__divsf3>
9d00554c:	00402821 	move	a1,v0
9d005550:	0b4014ed 	j	9d0053b4 <__strtof+0x180>
9d005554:	00402021 	move	a0,v0
9d005558:	0b4014d7 	j	9d00535c <__strtof+0x128>
9d00555c:	0012a823 	negu	s5,s2
9d005560:	26100001 	addiu	s0,s0,1
9d005564:	82020000 	lb	v0,0(s0)
9d005568:	0b40153b 	j	9d0054ec <__strtof+0x2b8>
9d00556c:	24050001 	li	a1,1
9d005570:	00002021 	move	a0,zero
9d005574:	0b4014c9 	j	9d005324 <__strtof+0xf0>
9d005578:	0000a021 	move	s4,zero
9d00557c:	0b4014a9 	j	9d0052a4 <__strtof+0x70>
9d005580:	00808021 	move	s0,a0
9d005584:	82020000 	lb	v0,0(s0)
9d005588:	0b40153b 	j	9d0054ec <__strtof+0x2b8>
9d00558c:	00002821 	move	a1,zero
9d005590:	1280ff91 	beqz	s4,9d0053d8 <__strtof+0x1a4>
9d005594:	24030022 	li	v1,34
9d005598:	3c02a000 	lui	v0,0xa000
9d00559c:	0b4014f6 	j	9d0053d8 <__strtof+0x1a4>
9d0055a0:	ac430060 	sw	v1,96(v0)

Disassembly of section .text:

9d0055a4 <NU32_ReadUART1>:
// Read from UART1
// block other functions until you get a '\r' or '\n'
// send the pointer to your char array and the number of elements in the array
void NU32_ReadUART1(char * message, int maxLength) {
  char data = 0;
  int complete = 0, num_bytes = 0;
9d0055a4:	00003021 	move	a2,zero
  // loop until you get a '\r' or '\n'
  while (!complete) {
    if (U1STAbits.URXDA) { // if data is available
9d0055a8:	3c03bf80 	lui	v1,0xbf80
      data = U1RXREG;      // read the data
9d0055ac:	3c08bf80 	lui	t0,0xbf80
      if ((data == '\n') || (data == '\r')) {
9d0055b0:	2407000a 	li	a3,10
9d0055b4:	0b40157e 	j	9d0055f8 <NU32_ReadUART1+0x54>
9d0055b8:	2409000d 	li	t1,13
void NU32_ReadUART1(char * message, int maxLength) {
  char data = 0;
  int complete = 0, num_bytes = 0;
  // loop until you get a '\r' or '\n'
  while (!complete) {
    if (U1STAbits.URXDA) { // if data is available
9d0055bc:	8c626010 	lw	v0,24592(v1)
9d0055c0:	30420001 	andi	v0,v0,0x1
9d0055c4:	1040fffd 	beqz	v0,9d0055bc <NU32_ReadUART1+0x18>
9d0055c8:	00000000 	nop
      data = U1RXREG;      // read the data
9d0055cc:	8d026030 	lw	v0,24624(t0)
9d0055d0:	7c021420 	seb	v0,v0
      if ((data == '\n') || (data == '\r')) {
9d0055d4:	5047000f 	beql	v0,a3,9d005614 <NU32_ReadUART1+0x70>
9d0055d8:	00862021 	addu	a0,a0,a2
9d0055dc:	1049000c 	beq	v0,t1,9d005610 <NU32_ReadUART1+0x6c>
9d0055e0:	00865021 	addu	t2,a0,a2
        complete = 1;
      } else {
        message[num_bytes] = data;
9d0055e4:	a1420000 	sb	v0,0(t2)
        ++num_bytes;
9d0055e8:	24c60001 	addiu	a2,a2,1
        // roll over if the array is too small
        if (num_bytes >= maxLength) {
9d0055ec:	00c5102a 	slt	v0,a2,a1
9d0055f0:	50400001 	beqzl	v0,9d0055f8 <NU32_ReadUART1+0x54>
9d0055f4:	00003021 	move	a2,zero
void NU32_ReadUART1(char * message, int maxLength) {
  char data = 0;
  int complete = 0, num_bytes = 0;
  // loop until you get a '\r' or '\n'
  while (!complete) {
    if (U1STAbits.URXDA) { // if data is available
9d0055f8:	8c626010 	lw	v0,24592(v1)
9d0055fc:	30420001 	andi	v0,v0,0x1
9d005600:	1040ffee 	beqz	v0,9d0055bc <NU32_ReadUART1+0x18>
9d005604:	00000000 	nop
9d005608:	0b401573 	j	9d0055cc <NU32_ReadUART1+0x28>
9d00560c:	00000000 	nop
        }
      }
    }
  }
  // end the string
  message[num_bytes] = '\0';
9d005610:	00862021 	addu	a0,a0,a2
}
9d005614:	03e00008 	jr	ra
9d005618:	a0800000 	sb	zero,0(a0)

9d00561c <NU32_WriteUART1>:

// Write a charater array using UART1
void NU32_WriteUART1(const char * string) {
  while (*string != '\0') {
9d00561c:	80850000 	lb	a1,0(a0)
9d005620:	10a0000b 	beqz	a1,9d005650 <NU32_WriteUART1+0x34>
9d005624:	3c03bf80 	lui	v1,0xbf80
    while (U1STAbits.UTXBF) {
      ; // wait until tx buffer isn't full
    }
    U1TXREG = *string;
9d005628:	3c06bf80 	lui	a2,0xbf80
}

// Write a charater array using UART1
void NU32_WriteUART1(const char * string) {
  while (*string != '\0') {
    while (U1STAbits.UTXBF) {
9d00562c:	8c626010 	lw	v0,24592(v1)
9d005630:	30420200 	andi	v0,v0,0x200
9d005634:	1440fffd 	bnez	v0,9d00562c <NU32_WriteUART1+0x10>
9d005638:	00000000 	nop
      ; // wait until tx buffer isn't full
    }
    U1TXREG = *string;
9d00563c:	acc56020 	sw	a1,24608(a2)
    ++string;
9d005640:	24840001 	addiu	a0,a0,1
  message[num_bytes] = '\0';
}

// Write a charater array using UART1
void NU32_WriteUART1(const char * string) {
  while (*string != '\0') {
9d005644:	80850000 	lb	a1,0(a0)
9d005648:	14a0fff8 	bnez	a1,9d00562c <NU32_WriteUART1+0x10>
9d00564c:	00000000 	nop
9d005650:	03e00008 	jr	ra
9d005654:	00000000 	nop

9d005658 <NU32_ReadCoreTimer>:
unsigned int NU32_ReadCoreTimer(void)
{
  // the core timer count is the Coprocessor 0 (cp0) COUNT register
  // This is part of the cpu.  For details see
  // Section 2 Cpu For Devices with the M4k Core of the PIC32 reference manual
  return _CP0_GET_COUNT(); 
9d005658:	40024800 	mfc0	v0,c0_count
}
9d00565c:	03e00008 	jr	ra
9d005660:	00000000 	nop

9d005664 <NU32_WriteCoreTimer>:

// write a value to the core timer (the timer that is part of the cpu)
void NU32_WriteCoreTimer(unsigned int value)
{
  // the core timer updates the cp0 COUNT register, so set that
  _CP0_SET_COUNT(value);
9d005664:	40844800 	mtc0	a0,c0_count
9d005668:	000000c0 	ehb
}
9d00566c:	03e00008 	jr	ra
9d005670:	00000000 	nop

9d005674 <NU32_EnableInterrupts>:

// enable interrupts, and return the previous value of the cp0 STATUS register
unsigned int NU32_EnableInterrupts(void)
{
  return __builtin_enable_interrupts();
9d005674:	41626020 	ei	v0
}
9d005678:	03e00008 	jr	ra
9d00567c:	00000000 	nop

9d005680 <NU32_DisableInterrupts>:

// disable interrupts and return the previous value of the cp0 STATUS register
unsigned int NU32_DisableInterrupts(void)
{
  return __builtin_disable_interrupts();
9d005680:	41626000 	di	v0
9d005684:	000000c0 	ehb
}
9d005688:	03e00008 	jr	ra
9d00568c:	00000000 	nop

9d005690 <NU32_DisableUART1Interrupt>:
    NU32_EnableInterrupts();
  }
}

// Disable UART1 interrupt, so you can use NU32_ReadUART1 again
void NU32_DisableUART1Interrupt(void) {
9d005690:	27bdffe8 	addiu	sp,sp,-24
9d005694:	afbf0014 	sw	ra,20(sp)
  unsigned int status = NU32_DisableInterrupts();
9d005698:	0f4015a0 	jal	9d005680 <NU32_DisableInterrupts>
9d00569c:	00000000 	nop
  // turn off the module to change the settings
  U1MODEbits.ON = 0;
9d0056a0:	3c03bf80 	lui	v1,0xbf80
9d0056a4:	8c646000 	lw	a0,24576(v1)
9d0056a8:	7c047bc4 	ins	a0,zero,0xf,0x1
9d0056ac:	ac646000 	sw	a0,24576(v1)

  // Configure UART1 RX Interrupt to off
  IEC0bits.U1RXIE = 0;
9d0056b0:	3c04bf88 	lui	a0,0xbf88
9d0056b4:	8c851060 	lw	a1,4192(a0)
9d0056b8:	7c05dec4 	ins	a1,zero,0x1b,0x1
9d0056bc:	ac851060 	sw	a1,4192(a0)

  // turn on the UART
  U1MODEbits.ON = 1;
9d0056c0:	8c646000 	lw	a0,24576(v1)
9d0056c4:	24050001 	li	a1,1
9d0056c8:	7ca47bc4 	ins	a0,a1,0xf,0x1
9d0056cc:	ac646000 	sw	a0,24576(v1)
  //only re-enable interrupts if they were enabled prior to calling
  //this function
  if(status & 0x1) { 
9d0056d0:	30420001 	andi	v0,v0,0x1
9d0056d4:	10400004 	beqz	v0,9d0056e8 <NU32_DisableUART1Interrupt+0x58>
9d0056d8:	8fbf0014 	lw	ra,20(sp)
    NU32_EnableInterrupts();
9d0056dc:	0f40159d 	jal	9d005674 <NU32_EnableInterrupts>
9d0056e0:	00000000 	nop
  }
}
9d0056e4:	8fbf0014 	lw	ra,20(sp)
9d0056e8:	03e00008 	jr	ra
9d0056ec:	27bd0018 	addiu	sp,sp,24

9d0056f0 <NU32_EnableUART1Interrupt>:

  NU32_EnableInterrupts();
}

// Enable UART1 interrupt. 
void NU32_EnableUART1Interrupt(void) {
9d0056f0:	27bdffe8 	addiu	sp,sp,-24
9d0056f4:	afbf0014 	sw	ra,20(sp)
  // disable interrupts
  unsigned int status = NU32_DisableInterrupts();
9d0056f8:	0f4015a0 	jal	9d005680 <NU32_DisableInterrupts>
9d0056fc:	00000000 	nop
  // turn off the module to change the settings
  U1MODEbits.ON = 0;
9d005700:	3c03bf80 	lui	v1,0xbf80
9d005704:	8c646000 	lw	a0,24576(v1)
9d005708:	7c047bc4 	ins	a0,zero,0xf,0x1
9d00570c:	ac646000 	sw	a0,24576(v1)

  // Clear the RX interrupt Flag
  IFS0bits.U1RXIF = 0;
9d005710:	3c04bf88 	lui	a0,0xbf88
9d005714:	8c851030 	lw	a1,4144(a0)
9d005718:	7c05dec4 	ins	a1,zero,0x1b,0x1
9d00571c:	ac851030 	sw	a1,4144(a0)

  // Configure UART1 RX Interrupt
  // configure RX to interrupt whenever a character arrives
  U1STAbits.URXISEL = 0;
9d005720:	3c04bf80 	lui	a0,0xbf80
9d005724:	8c856010 	lw	a1,24592(a0)
9d005728:	7c053984 	ins	a1,zero,0x6,0x2
9d00572c:	ac856010 	sw	a1,24592(a0)
  IPC6bits.U1IP = 2;
9d005730:	3c04bf88 	lui	a0,0xbf88
9d005734:	8c8510f0 	lw	a1,4336(a0)
9d005738:	24060002 	li	a2,2
9d00573c:	7cc52084 	ins	a1,a2,0x2,0x3
9d005740:	ac8510f0 	sw	a1,4336(a0)
  IPC6bits.U1IS = 0;
9d005744:	8c8510f0 	lw	a1,4336(a0)
9d005748:	7c050804 	ins	a1,zero,0x0,0x2
9d00574c:	ac8510f0 	sw	a1,4336(a0)
  IEC0bits.U1RXIE = 1;
9d005750:	3c04bf88 	lui	a0,0xbf88
9d005754:	8c861060 	lw	a2,4192(a0)
9d005758:	24050001 	li	a1,1
9d00575c:	7ca6dec4 	ins	a2,a1,0x1b,0x1
9d005760:	ac861060 	sw	a2,4192(a0)
  
  // turn on the UART
  U1MODEbits.ON = 1;
9d005764:	8c646000 	lw	a0,24576(v1)
9d005768:	7ca47bc4 	ins	a0,a1,0xf,0x1
9d00576c:	ac646000 	sw	a0,24576(v1)
  
  //only re-enable interrupts if they were enabled prior to calling
  //this function
  if(status & 0x1) { 
9d005770:	30420001 	andi	v0,v0,0x1
9d005774:	10400004 	beqz	v0,9d005788 <NU32_EnableUART1Interrupt+0x98>
9d005778:	8fbf0014 	lw	ra,20(sp)
    NU32_EnableInterrupts();
9d00577c:	0f40159d 	jal	9d005674 <NU32_EnableInterrupts>
9d005780:	00000000 	nop
  }
}
9d005784:	8fbf0014 	lw	ra,20(sp)
9d005788:	03e00008 	jr	ra
9d00578c:	27bd0018 	addiu	sp,sp,24

9d005790 <NU32_EnableCache>:
  // to indicate that kseg0 is cacheable (0x3) or uncacheable (0x2)
  // see Chapter 2 "CPU for Devices with M4K Core" of the PIC32 reference manual
  // most of the other bits have prescribed values
  // microchip does not provide a _CP0_SET_CONFIG macro, so we directly use
  // the compiler built-in command _mtc0
  __builtin_mtc0(_CP0_CONFIG, _CP0_CONFIG_SELECT, 0xa4210583);
9d005790:	3c02a421 	lui	v0,0xa421
9d005794:	24420583 	addiu	v0,v0,1411
9d005798:	40828000 	mtc0	v0,c0_config
9d00579c:	000000c0 	ehb
}
9d0057a0:	03e00008 	jr	ra
9d0057a4:	00000000 	nop

9d0057a8 <NU32_Startup>:

// Perform startup routines:
//  Make NU32_LED1 and NU32_LED2 pins outputs (NU32USER is by default an input)
//  Initialize the serial port - UART1 (no interrupt) 
//  Enable interrupts
void NU32_Startup() {
9d0057a8:	27bdffe8 	addiu	sp,sp,-24
9d0057ac:	afbf0014 	sw	ra,20(sp)
  // disable interrupts
  NU32_DisableInterrupts();
9d0057b0:	0f4015a0 	jal	9d005680 <NU32_DisableInterrupts>
9d0057b4:	00000000 	nop

  // enable the cache
  NU32_EnableCache();
9d0057b8:	0f4015e4 	jal	9d005790 <NU32_EnableCache>
9d0057bc:	00000000 	nop

  // set the prefectch cache wait state to 2, as per the
  // electrical characteristics data sheet
  CHECONbits.PFMWS = 0x2;   
9d0057c0:	3c02bf88 	lui	v0,0xbf88
9d0057c4:	8c434000 	lw	v1,16384(v0)
9d0057c8:	24050002 	li	a1,2
9d0057cc:	7ca31004 	ins	v1,a1,0x0,0x3
9d0057d0:	ac434000 	sw	v1,16384(v0)

  //enable prefetch for cacheable and noncacheable memory
  CHECONbits.PREFEN = 0x3; 
9d0057d4:	8c434000 	lw	v1,16384(v0)
9d0057d8:	24040003 	li	a0,3
9d0057dc:	7c832904 	ins	v1,a0,0x4,0x2
9d0057e0:	ac434000 	sw	v1,16384(v0)

  // 0 data RAM access wait states
  BMXCONbits.BMXWSDRM = 0x0;
9d0057e4:	3c02bf88 	lui	v0,0xbf88
9d0057e8:	8c432000 	lw	v1,8192(v0)
9d0057ec:	7c033184 	ins	v1,zero,0x6,0x1
9d0057f0:	ac432000 	sw	v1,8192(v0)
  
  // enable multi vector interrupts
  INTCONbits.MVEC = 0x1;
9d0057f4:	3c02bf88 	lui	v0,0xbf88
9d0057f8:	8c441000 	lw	a0,4096(v0)
9d0057fc:	24030001 	li	v1,1
9d005800:	7c646304 	ins	a0,v1,0xc,0x1
9d005804:	ac441000 	sw	a0,4096(v0)

  // disable JTAG to get A4 and A5 back
  DDPCONbits.JTAGEN = 0;
9d005808:	3c02bf81 	lui	v0,0xbf81
9d00580c:	8c44f200 	lw	a0,-3584(v0)
9d005810:	7c0418c4 	ins	a0,zero,0x3,0x1
9d005814:	ac44f200 	sw	a0,-3584(v0)

  TRISACLR = 0x0030; // Make A5 and A4 outputs (LED2 and LED1)
9d005818:	24040030 	li	a0,48
9d00581c:	3c02bf88 	lui	v0,0xbf88
9d005820:	ac446004 	sw	a0,24580(v0)
  NU32_LED1 = 1;      // LED1 is off
9d005824:	3c02bf88 	lui	v0,0xbf88
9d005828:	8c446020 	lw	a0,24608(v0)
9d00582c:	7c642104 	ins	a0,v1,0x4,0x1
9d005830:	ac446020 	sw	a0,24608(v0)
  NU32_LED2 = 0;      // LED2 is on
9d005834:	8c446020 	lw	a0,24608(v0)
9d005838:	7c042944 	ins	a0,zero,0x5,0x1
9d00583c:	ac446020 	sw	a0,24608(v0)

  // turn on UART1 without an interrupt
  U1MODEbits.BRGH = 0; // set baud to NU32_DESIRED_BAUD
9d005840:	3c02bf80 	lui	v0,0xbf80
9d005844:	8c446000 	lw	a0,24576(v0)
9d005848:	7c0418c4 	ins	a0,zero,0x3,0x1
9d00584c:	ac446000 	sw	a0,24576(v0)
  U1BRG = ((NU32_SYS_FREQ / NU32_DESIRED_BAUD) / 16) - 1;
9d005850:	24060014 	li	a2,20
9d005854:	3c04bf80 	lui	a0,0xbf80
9d005858:	ac866040 	sw	a2,24640(a0)

  // 8 bit, no parity bit, and 1 stop bit (8N1 setup)
  U1MODEbits.PDSEL = 0;
9d00585c:	8c446000 	lw	a0,24576(v0)
9d005860:	7c041044 	ins	a0,zero,0x1,0x2
9d005864:	ac446000 	sw	a0,24576(v0)
  U1MODEbits.STSEL = 0;
9d005868:	8c446000 	lw	a0,24576(v0)
9d00586c:	7c040004 	ins	a0,zero,0x0,0x1
9d005870:	ac446000 	sw	a0,24576(v0)

  // configure TX & RX pins as output & input pins
  U1STAbits.UTXEN = 1;
9d005874:	3c04bf80 	lui	a0,0xbf80
9d005878:	8c866010 	lw	a2,24592(a0)
9d00587c:	7c665284 	ins	a2,v1,0xa,0x1
9d005880:	ac866010 	sw	a2,24592(a0)
  U1STAbits.URXEN = 1;
9d005884:	8c866010 	lw	a2,24592(a0)
9d005888:	7c666304 	ins	a2,v1,0xc,0x1
9d00588c:	ac866010 	sw	a2,24592(a0)
  // configure using RTS and CTS
  U1MODEbits.UEN = 2;
9d005890:	8c446000 	lw	a0,24576(v0)
9d005894:	7ca44a04 	ins	a0,a1,0x8,0x2
9d005898:	ac446000 	sw	a0,24576(v0)

  // enable the uart
  U1MODEbits.ON = 1;
9d00589c:	8c446000 	lw	a0,24576(v0)
9d0058a0:	7c647bc4 	ins	a0,v1,0xf,0x1
9d0058a4:	ac446000 	sw	a0,24576(v0)

  NU32_EnableInterrupts();
9d0058a8:	0f40159d 	jal	9d005674 <NU32_EnableInterrupts>
9d0058ac:	00000000 	nop
}
9d0058b0:	8fbf0014 	lw	ra,20(sp)
9d0058b4:	03e00008 	jr	ra
9d0058b8:	27bd0018 	addiu	sp,sp,24

9d0058bc <NU32_DisableCache>:

// Disable the cache
void NU32_DisableCache(void) {
  // Set the CP0 CONFIG register to make kseg0 uncacheable
  // (See NU32_EnableCache())
  __builtin_mtc0(_CP0_CONFIG, _CP0_CONFIG_SELECT, 0xa4210582);
9d0058bc:	3c02a421 	lui	v0,0xa421
9d0058c0:	24420582 	addiu	v0,v0,1410
9d0058c4:	40828000 	mtc0	v0,c0_config
9d0058c8:	000000c0 	ehb
}
9d0058cc:	03e00008 	jr	ra
9d0058d0:	00000000 	nop

Disassembly of section .text.dp32mul:

9d0058d4 <__muldf3>:
9d0058d4:	00055040 000a5542 00054ac0 00047d42     @P..BU...J..B}..
9d0058e4:	012f4825 000442c0 3c0e8000 012e4825     %H/..B.....<%H..
9d0058f4:	00076840 000d6d42 000762c0 00067d42     @h..Bm...b..B}..
9d005904:	018f6025 00065ac0 018e6025 00a72826     %`...Z..%`..&(..
9d005914:	00ae2824 254fffff 2de107fe 10200047     $(....O%...-G. .
9d005924:	00000000                                ....

9d005928 <Clab1>:
9d005928:	25afffff 	addiu	t7,t5,-1
9d00592c:	2de107fe 	sltiu	at,t7,2046
9d005930:	1020006f 	beqz	at,9d005af0 <CspecB>
9d005934:	00000000 	nop

9d005938 <Clab2>:
9d005938:	25affc02 	addiu	t7,t5,-1022
9d00593c:	014f5021 	addu	t2,t2,t7
9d005940:	012c0019 	multu	t1,t4
9d005944:	00003812 	mflo	a3
9d005948:	00007010 	mfhi	t6
9d00594c:	010b0019 	multu	t0,t3
9d005950:	00002012 	mflo	a0
9d005954:	00003010 	mfhi	a2
9d005958:	012b0019 	multu	t1,t3
9d00595c:	00005812 	mflo	t3
9d005960:	00006810 	mfhi	t5
9d005964:	00cb3021 	addu	a2,a2,t3
9d005968:	00cb782b 	sltu	t7,a2,t3
9d00596c:	00ed3821 	addu	a3,a3,t5
9d005970:	00ef3821 	addu	a3,a3,t7
9d005974:	10ed0002 	beq	a3,t5,9d005980 <L20>
9d005978:	00000000 	nop
9d00597c:	00ed782b 	sltu	t7,a3,t5

9d005980 <L20>:
9d005980:	01cf7021 	addu	t6,t6,t7
9d005984:	010c0019 	multu	t0,t4
9d005988:	00004012 	mflo	t0
9d00598c:	00004810 	mfhi	t1
9d005990:	00c83021 	addu	a2,a2,t0
9d005994:	00c8782b 	sltu	t7,a2,t0
9d005998:	00e93821 	addu	a3,a3,t1
9d00599c:	00ef3821 	addu	a3,a3,t7
9d0059a0:	10e90002 	beq	a3,t1,9d0059ac <L21>
9d0059a4:	00000000 	nop
9d0059a8:	00e9782b 	sltu	t7,a3,t1

9d0059ac <L21>:
9d0059ac:	01cf7021 	addu	t6,t6,t7
9d0059b0:	00867825 	or	t7,a0,a2
9d0059b4:	11e00002 	beqz	t7,9d0059c0 <i13>
9d0059b8:	00000000 	nop
9d0059bc:	34e70001 	ori	a3,a3,0x1

9d0059c0 <i13>:
9d0059c0:	000e4825 	or	t1,zero,t6
9d0059c4:	05200006 	bltz	t1,9d0059e0 <i14>
9d0059c8:	00074025 	or	t0,zero,a3
9d0059cc:	0100782a 	slt	t7,t0,zero
9d0059d0:	01084021 	addu	t0,t0,t0
9d0059d4:	01294821 	addu	t1,t1,t1
9d0059d8:	012f4821 	addu	t1,t1,t7
9d0059dc:	254affff 	addiu	t2,t2,-1

9d0059e0 <i14>:
9d0059e0:	254fffff 	addiu	t7,t2,-1
9d0059e4:	2de107fe 	sltiu	at,t7,2046
9d0059e8:	10200068 	beqz	at,9d005b8c <Coveund>
9d0059ec:	00000000 	nop
9d0059f0:	25080400 	addiu	t0,t0,1024
9d0059f4:	2d0f0400 	sltiu	t7,t0,1024
9d0059f8:	012f4821 	addu	t1,t1,t7
9d0059fc:	012f782b 	sltu	t7,t1,t7
9d005a00:	014f5021 	addu	t2,t2,t7

9d005a04 <Clab8>:
9d005a04:	00087ac2 	srl	t7,t0,0xb
9d005a08:	31ef0001 	andi	t7,t7,0x1
9d005a0c:	010f4023 	subu	t0,t0,t7
9d005a10:	000822c2 	srl	a0,t0,0xb
9d005a14:	00097d40 	sll	t7,t1,0x15
9d005a18:	008f2025 	or	a0,a0,t7
9d005a1c:	00097840 	sll	t7,t1,0x1
9d005a20:	000f7b02 	srl	t7,t7,0xc
9d005a24:	00af2825 	or	a1,a1,t7
9d005a28:	000a7d00 	sll	t7,t2,0x14
9d005a2c:	00af2825 	or	a1,a1,t7

9d005a30 <Cret>:
9d005a30:	00041025 	or	v0,zero,a0
9d005a34:	00051825 	or	v1,zero,a1

9d005a38 <C999>:
9d005a38:	03e00008 	jr	ra
9d005a3c:	00000000 	nop

9d005a40 <CspecA>:
9d005a40:	0100782a 	slt	t7,t0,zero
9d005a44:	01084021 	addu	t0,t0,t0
9d005a48:	01294821 	addu	t1,t1,t1
9d005a4c:	1540001c 	bnez	t2,9d005ac0 <i15>
9d005a50:	012f4821 	addu	t1,t1,t7
9d005a54:	01287825 	or	t7,t1,t0
9d005a58:	11e00014 	beqz	t7,9d005aac <i16>
9d005a5c:	00000000 	nop
9d005a60:	15200008 	bnez	t1,9d005a84 <L22>
9d005a64:	00000000 	nop
9d005a68:	15000003 	bnez	t0,9d005a78 <L23>
9d005a6c:	00000000 	nop
9d005a70:	1000ffad 	b	9d005928 <Clab1>
9d005a74:	240a0000 	li	t2,0

9d005a78 <L23>:
9d005a78:	01004825 	move	t1,t0
9d005a7c:	24080000 	li	t0,0
9d005a80:	254affe0 	addiu	t2,t2,-32

9d005a84 <L22>:
9d005a84:	712e7020 	clz	t6,t1
9d005a88:	11c0ffa7 	beqz	t6,9d005928 <Clab1>
9d005a8c:	00000000 	nop
9d005a90:	014e5023 	subu	t2,t2,t6
9d005a94:	000e3822 	neg	a3,t6
9d005a98:	00e83806 	srlv	a3,t0,a3
9d005a9c:	01c84004 	sllv	t0,t0,t6
9d005aa0:	01c94804 	sllv	t1,t1,t6
9d005aa4:	1000ffa0 	b	9d005928 <Clab1>
9d005aa8:	01274825 	or	t1,t1,a3

9d005aac <i16>:
9d005aac:	240107ff 	li	at,2047
9d005ab0:	11a10033 	beq	t5,at,9d005b80 <Cnan>
9d005ab4:	00000000 	nop
9d005ab8:	1000ffdd 	b	9d005a30 <Cret>
9d005abc:	00000000 	nop

9d005ac0 <i15>:
9d005ac0:	01287825 	or	t7,t1,t0
9d005ac4:	15e0002e 	bnez	t7,9d005b80 <Cnan>
9d005ac8:	00000000 	nop
9d005acc:	15a00005 	bnez	t5,9d005ae4 <i17>
9d005ad0:	00000000 	nop
9d005ad4:	000c7840 	sll	t7,t4,0x1
9d005ad8:	01eb7825 	or	t7,t7,t3
9d005adc:	11e00028 	beqz	t7,9d005b80 <Cnan>
9d005ae0:	00000000 	nop

9d005ae4 <i17>:
9d005ae4:	240107ff 	li	at,2047
9d005ae8:	15a10021 	bne	t5,at,9d005b70 <Cinf>
9d005aec:	00000000 	nop

9d005af0 <CspecB>:
9d005af0:	0160782a 	slt	t7,t3,zero
9d005af4:	016b5821 	addu	t3,t3,t3
9d005af8:	018c6021 	addu	t4,t4,t4
9d005afc:	15a00019 	bnez	t5,9d005b64 <i18>
9d005b00:	018f6021 	addu	t4,t4,t7
9d005b04:	018b7825 	or	t7,t4,t3
9d005b08:	11e00014 	beqz	t7,9d005b5c <i19>
9d005b0c:	00000000 	nop
9d005b10:	15800008 	bnez	t4,9d005b34 <L25>
9d005b14:	00000000 	nop
9d005b18:	15600003 	bnez	t3,9d005b28 <L26>
9d005b1c:	00000000 	nop
9d005b20:	1000ff85 	b	9d005938 <Clab2>
9d005b24:	240d0000 	li	t5,0

9d005b28 <L26>:
9d005b28:	01606025 	move	t4,t3
9d005b2c:	240b0000 	li	t3,0
9d005b30:	25adffe0 	addiu	t5,t5,-32

9d005b34 <L25>:
9d005b34:	71863020 	clz	a2,t4
9d005b38:	10c0ff7f 	beqz	a2,9d005938 <Clab2>
9d005b3c:	00000000 	nop
9d005b40:	01a66823 	subu	t5,t5,a2
9d005b44:	00067022 	neg	t6,a2
9d005b48:	01cb7006 	srlv	t6,t3,t6
9d005b4c:	00cb5804 	sllv	t3,t3,a2
9d005b50:	00cc6004 	sllv	t4,t4,a2
9d005b54:	1000ff78 	b	9d005938 <Clab2>
9d005b58:	018e6025 	or	t4,t4,t6

9d005b5c <i19>:
9d005b5c:	1000ffb4 	b	9d005a30 <Cret>
9d005b60:	24040000 	li	a0,0

9d005b64 <i18>:
9d005b64:	018b7825 	or	t7,t4,t3
9d005b68:	15e00005 	bnez	t7,9d005b80 <Cnan>
9d005b6c:	00000000 	nop

9d005b70 <Cinf>:
9d005b70:	3c017ff0 	lui	at,0x7ff0
9d005b74:	00a12825 	or	a1,a1,at
9d005b78:	1000ffad 	b	9d005a30 <Cret>
9d005b7c:	24040000 	li	a0,0

9d005b80 <Cnan>:
9d005b80:	3c05fff8 	lui	a1,0xfff8
9d005b84:	1000ffaa 	b	9d005a30 <Cret>
9d005b88:	24040000 	li	a0,0

9d005b8c <Coveund>:
9d005b8c:	1d40fff8 	bgtz	t2,9d005b70 <Cinf>
9d005b90:	00000000 	nop
9d005b94:	240e0001 	li	t6,1
9d005b98:	01ca7023 	subu	t6,t6,t2

9d005b9c <L28>:
9d005b9c:	2dc10020 	sltiu	at,t6,32
9d005ba0:	14200007 	bnez	at,9d005bc0 <L29>
9d005ba4:	00000000 	nop
9d005ba8:	21ceffe0 	addi	t6,t6,-32
9d005bac:	0008302b 	sltu	a2,zero,t0
9d005bb0:	1009000d 	beq	zero,t1,9d005be8 <L30>
9d005bb4:	01264025 	or	t0,t1,a2
9d005bb8:	1000fff8 	b	9d005b9c <L28>
9d005bbc:	34090000 	li	t1,0x0

9d005bc0 <L29>:
9d005bc0:	11c00009 	beqz	t6,9d005be8 <L30>
9d005bc4:	00000000 	nop
9d005bc8:	000e3822 	neg	a3,t6
9d005bcc:	00e83004 	sllv	a2,t0,a3
9d005bd0:	00e93804 	sllv	a3,t1,a3
9d005bd4:	01c84006 	srlv	t0,t0,t6
9d005bd8:	01c94806 	srlv	t1,t1,t6
9d005bdc:	10c00002 	beqz	a2,9d005be8 <L30>
9d005be0:	00e84025 	or	t0,a3,t0
9d005be4:	35080002 	ori	t0,t0,0x2

9d005be8 <L30>:
9d005be8:	25080400 	addiu	t0,t0,1024
9d005bec:	2d0f0400 	sltiu	t7,t0,1024
9d005bf0:	012f4821 	addu	t1,t1,t7
9d005bf4:	1000ff83 	b	9d005a04 <Clab8>
9d005bf8:	000957c2 	srl	t2,t1,0x1f
9d005bfc:	00000000 	nop

Disassembly of section .text.fpsubadd:

9d005c00 <__subsf3>:
9d005c00:	3c018000 00a12826                       ...<&(..

9d005c08 <__addsf3>:
9d005c08:	00044dc2 312900ff 00055dc2 316b00ff     .M....)1.]....k1
9d005c18:	3c078000 00044200 01074025 00055200     ...<.B..%@...R..
9d005c28:	01475025 252dffff 2da100fe 10200061     %PG...-%...-a. .
9d005c38:	00000000                                ....

9d005c3c <Blab1>:
9d005c3c:	256dffff 	addiu	t5,t3,-1
9d005c40:	2da100fe 	sltiu	at,t5,254
9d005c44:	10200077 	beqz	at,9d005e24 <BspecB>
9d005c48:	00000000 	nop

9d005c4c <Blab2>:
9d005c4c:	012b6023 	subu	t4,t1,t3
9d005c50:	0580000d 	bltz	t4,9d005c88 <i1>
9d005c54:	00000000 	nop
9d005c58:	29810020 	slti	at,t4,32
9d005c5c:	14200003 	bnez	at,9d005c6c <i2>
9d005c60:	00000000 	nop
9d005c64:	10000015 	b	9d005cbc <e1>
9d005c68:	240a0002 	li	t2,2

9d005c6c <i2>:
9d005c6c:	000a3025 	or	a2,zero,t2
9d005c70:	018a5006 	srlv	t2,t2,t4
9d005c74:	018a6804 	sllv	t5,t2,t4
9d005c78:	11a60010 	beq	t5,a2,9d005cbc <e1>
9d005c7c:	00000000 	nop
9d005c80:	1000000e 	b	9d005cbc <e1>
9d005c84:	354a0002 	ori	t2,t2,0x2

9d005c88 <i1>:
9d005c88:	000b4825 	or	t1,zero,t3
9d005c8c:	000c6023 	negu	t4,t4
9d005c90:	29810020 	slti	at,t4,32
9d005c94:	14200003 	bnez	at,9d005ca4 <i4>
9d005c98:	00000000 	nop
9d005c9c:	10000007 	b	9d005cbc <e1>
9d005ca0:	24080002 	li	t0,2

9d005ca4 <i4>:
9d005ca4:	00083025 	or	a2,zero,t0
9d005ca8:	01884006 	srlv	t0,t0,t4
9d005cac:	01886804 	sllv	t5,t0,t4
9d005cb0:	11a60002 	beq	t5,a2,9d005cbc <e1>
9d005cb4:	00000000 	nop
9d005cb8:	35080002 	ori	t0,t0,0x2

9d005cbc <e1>:
9d005cbc:	00876024 	and	t4,a0,a3
9d005cc0:	01856826 	xor	t5,t4,a1
9d005cc4:	05a00010 	bltz	t5,9d005d08 <Bsub1>
9d005cc8:	00000000 	nop
9d005ccc:	010a4021 	addu	t0,t0,t2
9d005cd0:	010a682b 	sltu	t5,t0,t2
9d005cd4:	11a00017 	beqz	t5,9d005d34 <Bres>
9d005cd8:	00000000 	nop
9d005cdc:	310d0001 	andi	t5,t0,0x1
9d005ce0:	11a00002 	beqz	t5,9d005cec <i7>
9d005ce4:	00000000 	nop
9d005ce8:	35080002 	ori	t0,t0,0x2

9d005cec <i7>:
9d005cec:	00084042 	srl	t0,t0,0x1
9d005cf0:	25290001 	addiu	t1,t1,1
9d005cf4:	240100ff 	li	at,255
9d005cf8:	1521000e 	bne	t1,at,9d005d34 <Bres>
9d005cfc:	00000000 	nop
9d005d00:	1000000c 	b	9d005d34 <Bres>
9d005d04:	24080000 	li	t0,0

9d005d08 <Bsub1>:
9d005d08:	010a682b 	sltu	t5,t0,t2
9d005d0c:	11a00004 	beqz	t5,9d005d20 <i9>
9d005d10:	010a4023 	subu	t0,t0,t2
9d005d14:	00084023 	negu	t0,t0
9d005d18:	10000003 	b	9d005d28 <e9>
9d005d1c:	01876026 	xor	t4,t4,a3

9d005d20 <i9>:
9d005d20:	11000050 	beqz	t0,9d005e64 <Bzer>
9d005d24:	00000000 	nop

9d005d28 <e9>:
9d005d28:	71063020 	clz	a2,t0
9d005d2c:	01264823 	subu	t1,t1,a2
9d005d30:	00c84004 	sllv	t0,t0,a2

9d005d34 <Bres>:
9d005d34:	1920000e 	blez	t1,9d005d70 <Bund>
9d005d38:	00000000 	nop

9d005d3c <Blab12>:
9d005d3c:	25080080 	addiu	t0,t0,128
9d005d40:	2d0d0080 	sltiu	t5,t0,128
9d005d44:	012d4821 	addu	t1,t1,t5
9d005d48:	00086a02 	srl	t5,t0,0x8
9d005d4c:	31ad0001 	andi	t5,t5,0x1
9d005d50:	010d4023 	subu	t0,t0,t5
9d005d54:	00084040 	sll	t0,t0,0x1
9d005d58:	00084242 	srl	t0,t0,0x9
9d005d5c:	00096dc0 	sll	t5,t1,0x17
9d005d60:	010d4025 	or	t0,t0,t5
9d005d64:	010c1025 	or	v0,t0,t4

9d005d68 <B999>:
9d005d68:	03e00008 	jr	ra
9d005d6c:	00000000 	nop

9d005d70 <Bund>:
9d005d70:	24060001 	li	a2,1
9d005d74:	00c93023 	subu	a2,a2,t1
9d005d78:	2cc10020 	sltiu	at,a2,32
9d005d7c:	10200039 	beqz	at,9d005e64 <Bzer>
9d005d80:	00000000 	nop
9d005d84:	3c018000 	lui	at,0x8000
9d005d88:	01014025 	or	t0,t0,at
9d005d8c:	240d0020 	li	t5,32
9d005d90:	01a66823 	subu	t5,t5,a2
9d005d94:	01a84804 	sllv	t1,t0,t5
9d005d98:	11200002 	beqz	t1,9d005da4 <i10>
9d005d9c:	00c84006 	srlv	t0,t0,a2
9d005da0:	35080001 	ori	t0,t0,0x1

9d005da4 <i10>:
9d005da4:	24090000 	li	t1,0
9d005da8:	250d0080 	addiu	t5,t0,128
9d005dac:	05a1ffe3 	bgez	t5,9d005d3c <Blab12>
9d005db0:	00000000 	nop
9d005db4:	1000ffe1 	b	9d005d3c <Blab12>
9d005db8:	24090001 	li	t1,1

9d005dbc <BspecA>:
9d005dbc:	1520000e 	bnez	t1,9d005df8 <i12>
9d005dc0:	00000000 	nop
9d005dc4:	01084021 	addu	t0,t0,t0
9d005dc8:	11000005 	beqz	t0,9d005de0 <i13>
9d005dcc:	00000000 	nop
9d005dd0:	710c6020 	clz	t4,t0
9d005dd4:	012c4823 	subu	t1,t1,t4
9d005dd8:	1000ff98 	b	9d005c3c <Blab1>
9d005ddc:	01884004 	sllv	t0,t0,t4

9d005de0 <i13>:
9d005de0:	240100ff 	li	at,255
9d005de4:	1161000f 	beq	t3,at,9d005e24 <BspecB>
9d005de8:	00000000 	nop
9d005dec:	3c018000 	lui	at,0x8000
9d005df0:	14a10018 	bne	a1,at,9d005e54 <BretB>
9d005df4:	00000000 	nop

9d005df8 <i12>:
9d005df8:	01086821 	addu	t5,t0,t0
9d005dfc:	15a0001b 	bnez	t5,9d005e6c <Bnan>
9d005e00:	00000000 	nop
9d005e04:	240100ff 	li	at,255
9d005e08:	15610014 	bne	t3,at,9d005e5c <BretA>
9d005e0c:	00000000 	nop
9d005e10:	00856826 	xor	t5,a0,a1
9d005e14:	05a00015 	bltz	t5,9d005e6c <Bnan>
9d005e18:	00000000 	nop
9d005e1c:	1000000d 	b	9d005e54 <BretB>
9d005e20:	00000000 	nop

9d005e24 <BspecB>:
9d005e24:	15600008 	bnez	t3,9d005e48 <i15>
9d005e28:	00000000 	nop
9d005e2c:	014a5021 	addu	t2,t2,t2
9d005e30:	1140000a 	beqz	t2,9d005e5c <BretA>
9d005e34:	00000000 	nop
9d005e38:	714c6020 	clz	t4,t2
9d005e3c:	016c5823 	subu	t3,t3,t4
9d005e40:	1000ff82 	b	9d005c4c <Blab2>
9d005e44:	018a5004 	sllv	t2,t2,t4

9d005e48 <i15>:
9d005e48:	014a6821 	addu	t5,t2,t2
9d005e4c:	15a00007 	bnez	t5,9d005e6c <Bnan>
9d005e50:	00000000 	nop

9d005e54 <BretB>:
9d005e54:	1000ffc4 	b	9d005d68 <B999>
9d005e58:	00051025 	or	v0,zero,a1

9d005e5c <BretA>:
9d005e5c:	1000ffc2 	b	9d005d68 <B999>
9d005e60:	00041025 	or	v0,zero,a0

9d005e64 <Bzer>:
9d005e64:	1000ffc0 	b	9d005d68 <B999>
9d005e68:	24020000 	li	v0,0

9d005e6c <Bnan>:
9d005e6c:	1000ffbe 	b	9d005d68 <B999>
9d005e70:	3c02ffc0 	lui	v0,0xffc0
9d005e74:	00000000 	nop

Disassembly of section .text.fp32div:

9d005e78 <__divsf3>:
9d005e78:	3c0b8000 000445c2 310800ff 000555c2     ...<.E.....1.U..
9d005e88:	314a00ff 00043a00 00eb3825 00054a00     ..J1.:..%8...J..
9d005e98:	012b4825 00857026 016e5824 250effff     %H+.&p..$Xn....%
9d005ea8:	2dc100fe 1020003f 00000000              ...-?. .....

9d005eb4 <Dlab1>:
9d005eb4:	254effff 	addiu	t6,t2,-1
9d005eb8:	2dc100fe 	sltiu	at,t6,254
9d005ebc:	10200053 	beqz	at,9d00600c <DspecB>
9d005ec0:	00000000 	nop

9d005ec4 <Dlab2>:
9d005ec4:	00e9082b 	sltu	at,a3,t1
9d005ec8:	14200003 	bnez	at,9d005ed8 <i27>
9d005ecc:	00000000 	nop
9d005ed0:	00073842 	srl	a3,a3,0x1
9d005ed4:	25080001 	addiu	t0,t0,1

9d005ed8 <i27>:
9d005ed8:	00096382 	srl	t4,t1,0xe
9d005edc:	018001f4 	teq	t4,zero,0x7
9d005ee0:	00ec001b 	divu	zero,a3,t4
9d005ee4:	00002012 	mflo	a0
9d005ee8:	00003010 	mfhi	a2
9d005eec:	312d3fff 	andi	t5,t1,0x3fff
9d005ef0:	01a40019 	multu	t5,a0
9d005ef4:	00002812 	mflo	a1
9d005ef8:	00063380 	sll	a2,a2,0xe
9d005efc:	00c5702b 	sltu	t6,a2,a1
9d005f00:	11c00004 	beqz	t6,9d005f14 <i28>
9d005f04:	00c53023 	subu	a2,a2,a1
9d005f08:	2484ffff 	addiu	a0,a0,-1
9d005f0c:	00c93021 	addu	a2,a2,t1
9d005f10:	00c9702b 	sltu	t6,a2,t1

9d005f14 <i28>:
9d005f14:	018001f4 	teq	t4,zero,0x7
9d005f18:	00cc001b 	divu	zero,a2,t4
9d005f1c:	00003812 	mflo	a3
9d005f20:	00003010 	mfhi	a2
9d005f24:	01a70019 	multu	t5,a3
9d005f28:	00002812 	mflo	a1
9d005f2c:	00063380 	sll	a2,a2,0xe
9d005f30:	00c5702b 	sltu	t6,a2,a1
9d005f34:	11c00004 	beqz	t6,9d005f48 <i29>
9d005f38:	00c53023 	subu	a2,a2,a1
9d005f3c:	24e7ffff 	addiu	a3,a3,-1
9d005f40:	00c93021 	addu	a2,a2,t1
9d005f44:	00c9702b 	sltu	t6,a2,t1

9d005f48 <i29>:
9d005f48:	00047380 	sll	t6,a0,0xe
9d005f4c:	00ee3821 	addu	a3,a3,t6
9d005f50:	10c00002 	beqz	a2,9d005f5c <i30>
9d005f54:	00073900 	sll	a3,a3,0x4
9d005f58:	34e70001 	ori	a3,a3,0x1

9d005f5c <i30>:
9d005f5c:	240e007e 	li	t6,126
9d005f60:	01ca7023 	subu	t6,t6,t2
9d005f64:	010e4021 	addu	t0,t0,t6
9d005f68:	250effff 	addiu	t6,t0,-1
9d005f6c:	2dc100fe 	sltiu	at,t6,254
9d005f70:	10200034 	beqz	at,9d006044 <Doveund>
9d005f74:	00000000 	nop

9d005f78 <Dlab8>:
9d005f78:	24e70080 	addiu	a3,a3,128
9d005f7c:	2cee0080 	sltiu	t6,a3,128
9d005f80:	010e4021 	addu	t0,t0,t6
9d005f84:	00077202 	srl	t6,a3,0x8
9d005f88:	31ce0001 	andi	t6,t6,0x1
9d005f8c:	00ee3823 	subu	a3,a3,t6
9d005f90:	00073840 	sll	a3,a3,0x1
9d005f94:	00073a42 	srl	a3,a3,0x9
9d005f98:	000875c0 	sll	t6,t0,0x17
9d005f9c:	00ee3825 	or	a3,a3,t6
9d005fa0:	00eb1025 	or	v0,a3,t3

9d005fa4 <D999>:
9d005fa4:	03e00008 	jr	ra
9d005fa8:	00000000 	nop

9d005fac <DspecA>:
9d005fac:	15000008 	bnez	t0,9d005fd0 <i31>
9d005fb0:	00000000 	nop
9d005fb4:	00e73821 	addu	a3,a3,a3
9d005fb8:	10e00005 	beqz	a3,9d005fd0 <i31>
9d005fbc:	00000000 	nop
9d005fc0:	70ec6020 	clz	t4,a3
9d005fc4:	010c4023 	subu	t0,t0,t4
9d005fc8:	1000ffba 	b	9d005eb4 <Dlab1>
9d005fcc:	01873804 	sllv	a3,a3,t4

9d005fd0 <i31>:
9d005fd0:	15480004 	bne	t2,t0,9d005fe4 <i33>
9d005fd4:	00000000 	nop
9d005fd8:	01297021 	addu	t6,t1,t1
9d005fdc:	11c0002f 	beqz	t6,9d00609c <Dnan>
9d005fe0:	00000000 	nop

9d005fe4 <i33>:
9d005fe4:	240100ff 	li	at,255
9d005fe8:	11410008 	beq	t2,at,9d00600c <DspecB>
9d005fec:	00000000 	nop
9d005ff0:	11000012 	beqz	t0,9d00603c <Dzer>
9d005ff4:	00000000 	nop
9d005ff8:	00e77021 	addu	t6,a3,a3
9d005ffc:	15c00027 	bnez	t6,9d00609c <Dnan>
9d006000:	00000000 	nop
9d006004:	10000022 	b	9d006090 <Dinf>
9d006008:	00000000 	nop

9d00600c <DspecB>:
9d00600c:	15400008 	bnez	t2,9d006030 <i34>
9d006010:	00000000 	nop
9d006014:	01294821 	addu	t1,t1,t1
9d006018:	1120001d 	beqz	t1,9d006090 <Dinf>
9d00601c:	00000000 	nop
9d006020:	712c6020 	clz	t4,t1
9d006024:	014c5023 	subu	t2,t2,t4
9d006028:	1000ffa6 	b	9d005ec4 <Dlab2>
9d00602c:	01894804 	sllv	t1,t1,t4

9d006030 <i34>:
9d006030:	01297021 	addu	t6,t1,t1
9d006034:	15c00019 	bnez	t6,9d00609c <Dnan>
9d006038:	00000000 	nop

9d00603c <Dzer>:
9d00603c:	1000ffd9 	b	9d005fa4 <D999>
9d006040:	000b1025 	or	v0,zero,t3

9d006044 <Doveund>:
9d006044:	1d000012 	bgtz	t0,9d006090 <Dinf>
9d006048:	00000000 	nop
9d00604c:	240c0001 	li	t4,1
9d006050:	01886023 	subu	t4,t4,t0
9d006054:	2d810020 	sltiu	at,t4,32
9d006058:	1020fff8 	beqz	at,9d00603c <Dzer>
9d00605c:	00000000 	nop
9d006060:	240e0020 	li	t6,32
9d006064:	01cc7023 	subu	t6,t6,t4
9d006068:	01c74004 	sllv	t0,a3,t6
9d00606c:	11000002 	beqz	t0,9d006078 <i37>
9d006070:	01873806 	srlv	a3,a3,t4
9d006074:	34e70002 	ori	a3,a3,0x2

9d006078 <i37>:
9d006078:	24080000 	li	t0,0
9d00607c:	24ee0080 	addiu	t6,a3,128
9d006080:	05c1ffbd 	bgez	t6,9d005f78 <Dlab8>
9d006084:	00000000 	nop
9d006088:	1000ffbb 	b	9d005f78 <Dlab8>
9d00608c:	24080001 	li	t0,1

9d006090 <Dinf>:
9d006090:	3c017f80 	lui	at,0x7f80
9d006094:	1000ffc3 	b	9d005fa4 <D999>
9d006098:	01611025 	or	v0,t3,at

9d00609c <Dnan>:
9d00609c:	1000ffc1 	b	9d005fa4 <D999>
9d0060a0:	3c02ffc0 	lui	v0,0xffc0
9d0060a4:	00000000 	nop

Disassembly of section .text.__ldexp:

9d0060a8 <__ldexp>:
9d0060a8:	27bdffd8 	addiu	sp,sp,-40
9d0060ac:	afb10018 	sw	s1,24(sp)
9d0060b0:	7cb15500 	ext	s1,a1,0x14,0xb
9d0060b4:	2622ffff 	addiu	v0,s1,-1
9d0060b8:	2c4207fe 	sltiu	v0,v0,2046
9d0060bc:	afb30020 	sw	s3,32(sp)
9d0060c0:	afb2001c 	sw	s2,28(sp)
9d0060c4:	00c09821 	move	s3,a2
9d0060c8:	afbf0024 	sw	ra,36(sp)
9d0060cc:	afb00014 	sw	s0,20(sp)
9d0060d0:	000597c2 	srl	s2,a1,0x1f
9d0060d4:	00803821 	move	a3,a0
9d0060d8:	10400047 	beqz	v0,9d0061f8 <__ldexp+0x150>
9d0060dc:	7ca69800 	ext	a2,a1,0x0,0x14
9d0060e0:	3c030010 	lui	v1,0x10
9d0060e4:	2622fc01 	addiu	v0,s1,-1023
9d0060e8:	00c33025 	or	a2,a2,v1
9d0060ec:	267303ff 	addiu	s3,s3,1023
9d0060f0:	00071f42 	srl	v1,a3,0x1d
9d0060f4:	000688c0 	sll	s1,a2,0x3
9d0060f8:	02629821 	addu	s3,s3,v0
9d0060fc:	00718825 	or	s1,v1,s1
9d006100:	1a600029 	blez	s3,9d0061a8 <__ldexp+0x100>
9d006104:	000780c0 	sll	s0,a3,0x3
9d006108:	32030007 	andi	v1,s0,0x7
9d00610c:	14600016 	bnez	v1,9d006168 <__ldexp+0xc0>
9d006110:	7e0200c0 	ext	v0,s0,0x3,0x1
9d006114:	2a6207ff 	slti	v0,s3,2047
9d006118:	10400040 	beqz	v0,9d00621c <__ldexp+0x174>
9d00611c:	001130c2 	srl	a2,s1,0x3
9d006120:	00111f40 	sll	v1,s1,0x1d
9d006124:	001020c2 	srl	a0,s0,0x3
9d006128:	7cc20500 	ext	v0,a2,0x14,0x1
9d00612c:	10400039 	beqz	v0,9d006214 <__ldexp+0x16c>
9d006130:	00642025 	or	a0,v1,a0
9d006134:	7cc69800 	ext	a2,a2,0x0,0x14
9d006138:	001292c0 	sll	s2,s2,0xb
9d00613c:	02729825 	or	s3,s3,s2
9d006140:	00131d00 	sll	v1,s3,0x14
9d006144:	00801021 	move	v0,a0
9d006148:	00661825 	or	v1,v1,a2
9d00614c:	8fbf0024 	lw	ra,36(sp)
9d006150:	8fb30020 	lw	s3,32(sp)
9d006154:	8fb2001c 	lw	s2,28(sp)
9d006158:	8fb10018 	lw	s1,24(sp)
9d00615c:	8fb00014 	lw	s0,20(sp)
9d006160:	03e00008 	jr	ra
9d006164:	27bd0028 	addiu	sp,sp,40
9d006168:	24420003 	addiu	v0,v0,3
9d00616c:	02021021 	addu	v0,s0,v0
9d006170:	0050182b 	sltu	v1,v0,s0
9d006174:	00711821 	addu	v1,v1,s1
9d006178:	00408021 	move	s0,v0
9d00617c:	7c620600 	ext	v0,v1,0x18,0x1
9d006180:	1040ffe4 	beqz	v0,9d006114 <__ldexp+0x6c>
9d006184:	00608821 	move	s1,v1
9d006188:	00101042 	srl	v0,s0,0x1
9d00618c:	00031fc0 	sll	v1,v1,0x1f
9d006190:	00621825 	or	v1,v1,v0
9d006194:	00111042 	srl	v0,s1,0x1
9d006198:	00608021 	move	s0,v1
9d00619c:	00408821 	move	s1,v0
9d0061a0:	0b401845 	j	9d006114 <__ldexp+0x6c>
9d0061a4:	26730001 	addiu	s3,s3,1
9d0061a8:	24020001 	li	v0,1
9d0061ac:	00539823 	subu	s3,v0,s3
9d0061b0:	2a620038 	slti	v0,s3,56
9d0061b4:	5040001e 	beqzl	v0,9d006230 <__ldexp+0x188>
9d0061b8:	24100001 	li	s0,1
9d0061bc:	02202821 	move	a1,s1
9d0061c0:	02603021 	move	a2,s3
9d0061c4:	02002021 	move	a0,s0
9d0061c8:	0f401e29 	jal	9d0078a4 <__lshrdi3>
9d0061cc:	00139823 	negu	s3,s3
9d0061d0:	32650020 	andi	a1,s3,0x20
9d0061d4:	54a00003 	bnezl	a1,9d0061e4 <__ldexp+0x13c>
9d0061d8:	02709804 	sllv	s3,s0,s3
9d0061dc:	02719804 	sllv	s3,s1,s3
9d0061e0:	02709825 	or	s3,s3,s0
9d0061e4:	0013982b 	sltu	s3,zero,s3
9d0061e8:	02628025 	or	s0,s3,v0
9d0061ec:	00608821 	move	s1,v1
9d0061f0:	0b401842 	j	9d006108 <__ldexp+0x60>
9d0061f4:	24130001 	li	s3,1
9d0061f8:	16200004 	bnez	s1,9d00620c <__ldexp+0x164>
9d0061fc:	00801021 	move	v0,a0
9d006200:	00861025 	or	v0,a0,a2
9d006204:	1440000d 	bnez	v0,9d00623c <__ldexp+0x194>
9d006208:	00801021 	move	v0,a0
9d00620c:	0b401853 	j	9d00614c <__ldexp+0xa4>
9d006210:	00a01821 	move	v1,a1
9d006214:	0b40184e 	j	9d006138 <__ldexp+0x90>
9d006218:	00009821 	move	s3,zero
9d00621c:	00121ac0 	sll	v1,s2,0xb
9d006220:	346307ff 	ori	v1,v1,0x7ff
9d006224:	00031d00 	sll	v1,v1,0x14
9d006228:	0b401853 	j	9d00614c <__ldexp+0xa4>
9d00622c:	00001021 	move	v0,zero
9d006230:	00008821 	move	s1,zero
9d006234:	0b401842 	j	9d006108 <__ldexp+0x60>
9d006238:	24130001 	li	s3,1
9d00623c:	10c0000d 	beqz	a2,9d006274 <__ldexp+0x1cc>
9d006240:	70918820 	clz	s1,a0
9d006244:	70d18820 	clz	s1,a2
9d006248:	2631fff5 	addiu	s1,s1,-11
9d00624c:	5220ffa7 	beqzl	s1,9d0060ec <__ldexp+0x44>
9d006250:	2402fc02 	li	v0,-1022
9d006254:	00c02821 	move	a1,a2
9d006258:	0f401e3a 	jal	9d0078e8 <__ashldi3>
9d00625c:	02203021 	move	a2,s1
9d006260:	00403821 	move	a3,v0
9d006264:	2402fc02 	li	v0,-1022
9d006268:	00603021 	move	a2,v1
9d00626c:	0b40183b 	j	9d0060ec <__ldexp+0x44>
9d006270:	00511023 	subu	v0,v0,s1
9d006274:	0b401892 	j	9d006248 <__ldexp+0x1a0>
9d006278:	26310020 	addiu	s1,s1,32

Disassembly of section .text.fp32mul:

9d00627c <__mulsf3>:
9d00627c:	00043dc2 30e700ff 00054dc2 312900ff     .=.....0.M....)1
9d00628c:	3c0a8000 00043200 00ca3025 00054200     ...<.2..%0...B..
9d00629c:	010a4025 00856026 014c5024 24ecffff     %@..&`..$PL....$
9d0062ac:	2d8100fe 10200021 00000000              ...-!. .....

9d0062b8 <Clab1>:
9d0062b8:	252cffff 	addiu	t4,t1,-1
9d0062bc:	2d8100fe 	sltiu	at,t4,254
9d0062c0:	10200036 	beqz	at,9d00639c <CspecB>
9d0062c4:	00000000 	nop

9d0062c8 <Clab2>:
9d0062c8:	00c80019 	multu	a2,t0
9d0062cc:	00005812 	mflo	t3
9d0062d0:	11600002 	beqz	t3,9d0062dc <i17>
9d0062d4:	00003010 	mfhi	a2
9d0062d8:	34c60001 	ori	a2,a2,0x1

9d0062dc <i17>:
9d0062dc:	04c00003 	bltz	a2,9d0062ec <i18>
9d0062e0:	00000000 	nop
9d0062e4:	00063040 	sll	a2,a2,0x1
9d0062e8:	24e7ffff 	addiu	a3,a3,-1

9d0062ec <i18>:
9d0062ec:	252cff82 	addiu	t4,t1,-126
9d0062f0:	00ec3821 	addu	a3,a3,t4
9d0062f4:	24ecffff 	addiu	t4,a3,-1
9d0062f8:	2d8100fe 	sltiu	at,t4,254
9d0062fc:	1020003a 	beqz	at,9d0063e8 <Coveund>
9d006300:	00000000 	nop

9d006304 <Clab8>:
9d006304:	24c60080 	addiu	a2,a2,128
9d006308:	2ccc0080 	sltiu	t4,a2,128
9d00630c:	00ec3821 	addu	a3,a3,t4
9d006310:	00066202 	srl	t4,a2,0x8
9d006314:	318c0001 	andi	t4,t4,0x1
9d006318:	00cc3023 	subu	a2,a2,t4
9d00631c:	00063040 	sll	a2,a2,0x1
9d006320:	00063242 	srl	a2,a2,0x9
9d006324:	000765c0 	sll	t4,a3,0x17
9d006328:	00cc3025 	or	a2,a2,t4
9d00632c:	00ca1025 	or	v0,a2,t2

9d006330 <C999>:
9d006330:	03e00008 	jr	ra
9d006334:	00000000 	nop

9d006338 <CspecA>:
9d006338:	14e0000d 	bnez	a3,9d006370 <i19>
9d00633c:	00000000 	nop
9d006340:	00c63021 	addu	a2,a2,a2
9d006344:	10c00005 	beqz	a2,9d00635c <i20>
9d006348:	00000000 	nop
9d00634c:	70cb5820 	clz	t3,a2
9d006350:	00eb3823 	subu	a3,a3,t3
9d006354:	1000ffd8 	b	9d0062b8 <Clab1>
9d006358:	01663004 	sllv	a2,a2,t3

9d00635c <i20>:
9d00635c:	240100ff 	li	at,255
9d006360:	1121001f 	beq	t1,at,9d0063e0 <Cnan>
9d006364:	00000000 	nop
9d006368:	10000015 	b	9d0063c0 <Czer>
9d00636c:	00000000 	nop

9d006370 <i19>:
9d006370:	00c66021 	addu	t4,a2,a2
9d006374:	1580001a 	bnez	t4,9d0063e0 <Cnan>
9d006378:	00000000 	nop
9d00637c:	15200004 	bnez	t1,9d006390 <i21>
9d006380:	00000000 	nop
9d006384:	01086021 	addu	t4,t0,t0
9d006388:	11800015 	beqz	t4,9d0063e0 <Cnan>
9d00638c:	00000000 	nop

9d006390 <i21>:
9d006390:	240100ff 	li	at,255
9d006394:	1521000f 	bne	t1,at,9d0063d4 <Cinf>
9d006398:	00000000 	nop

9d00639c <CspecB>:
9d00639c:	1520000a 	bnez	t1,9d0063c8 <i22>
9d0063a0:	00000000 	nop
9d0063a4:	01084021 	addu	t0,t0,t0
9d0063a8:	11000005 	beqz	t0,9d0063c0 <Czer>
9d0063ac:	00000000 	nop
9d0063b0:	710b5820 	clz	t3,t0
9d0063b4:	012b4823 	subu	t1,t1,t3
9d0063b8:	1000ffc3 	b	9d0062c8 <Clab2>
9d0063bc:	01684004 	sllv	t0,t0,t3

9d0063c0 <Czer>:
9d0063c0:	1000ffdb 	b	9d006330 <C999>
9d0063c4:	000a1025 	or	v0,zero,t2

9d0063c8 <i22>:
9d0063c8:	01086021 	addu	t4,t0,t0
9d0063cc:	15800004 	bnez	t4,9d0063e0 <Cnan>
9d0063d0:	00000000 	nop

9d0063d4 <Cinf>:
9d0063d4:	3c017f80 	lui	at,0x7f80
9d0063d8:	1000ffd5 	b	9d006330 <C999>
9d0063dc:	01411025 	or	v0,t2,at

9d0063e0 <Cnan>:
9d0063e0:	1000ffd3 	b	9d006330 <C999>
9d0063e4:	3c02ffc0 	lui	v0,0xffc0

9d0063e8 <Coveund>:
9d0063e8:	1ce0fffa 	bgtz	a3,9d0063d4 <Cinf>
9d0063ec:	00000000 	nop
9d0063f0:	240b0001 	li	t3,1
9d0063f4:	01675823 	subu	t3,t3,a3
9d0063f8:	2d610020 	sltiu	at,t3,32
9d0063fc:	1020fff0 	beqz	at,9d0063c0 <Czer>
9d006400:	00000000 	nop
9d006404:	240c0020 	li	t4,32
9d006408:	018b6023 	subu	t4,t4,t3
9d00640c:	01863804 	sllv	a3,a2,t4
9d006410:	10e00002 	beqz	a3,9d00641c <i25>
9d006414:	01663006 	srlv	a2,a2,t3
9d006418:	34c60002 	ori	a2,a2,0x2

9d00641c <i25>:
9d00641c:	24070000 	li	a3,0
9d006420:	24cc0080 	addiu	t4,a2,128
9d006424:	0581ffb7 	bgez	t4,9d006304 <Clab8>
9d006428:	00000000 	nop
9d00642c:	1000ffb5 	b	9d006304 <Clab8>
9d006430:	24070001 	li	a3,1
9d006434:	00000000 	nop

Disassembly of section .text._filbuf:

9d006438 <_filbuf>:
9d006438:	9482000c 	lhu	v0,12(a0)
9d00643c:	27bdffd0 	addiu	sp,sp,-48
9d006440:	30420001 	andi	v0,v0,0x1
9d006444:	afb00018 	sw	s0,24(sp)
9d006448:	afbf002c 	sw	ra,44(sp)
9d00644c:	afb40028 	sw	s4,40(sp)
9d006450:	afb30024 	sw	s3,36(sp)
9d006454:	afb20020 	sw	s2,32(sp)
9d006458:	afb1001c 	sw	s1,28(sp)
9d00645c:	00808021 	move	s0,a0
9d006460:	1040003e 	beqz	v0,9d00655c <_filbuf+0x124>
9d006464:	ac800004 	sw	zero,4(a0)
9d006468:	3c14a000 	lui	s4,0xa000
9d00646c:	8282005c 	lb	v0,92(s4)
9d006470:	50400013 	beqzl	v0,9d0064c0 <_filbuf+0x88>
9d006474:	8e060010 	lw	a2,16(s0)
9d006478:	3c11a000 	lui	s1,0xa000
9d00647c:	26311644 	addiu	s1,s1,5700
9d006480:	263300a0 	addiu	s3,s1,160
9d006484:	0b401925 	j	9d006494 <_filbuf+0x5c>
9d006488:	24120102 	li	s2,258
9d00648c:	5233000b 	beql	s1,s3,9d0064bc <_filbuf+0x84>
9d006490:	a280005c 	sb	zero,92(s4)
9d006494:	9622000c 	lhu	v0,12(s1)
9d006498:	30420102 	andi	v0,v0,0x102
9d00649c:	5452fffb 	bnel	v0,s2,9d00648c <_filbuf+0x54>
9d0064a0:	26310014 	addiu	s1,s1,20
9d0064a4:	02202021 	move	a0,s1
9d0064a8:	0f401ce9 	jal	9d0073a4 <.LFE0>
9d0064ac:	26310014 	addiu	s1,s1,20
9d0064b0:	5633fff9 	bnel	s1,s3,9d006498 <_filbuf+0x60>
9d0064b4:	9622000c 	lhu	v0,12(s1)
9d0064b8:	a280005c 	sb	zero,92(s4)
9d0064bc:	8e060010 	lw	a2,16(s0)
9d0064c0:	10c00017 	beqz	a2,9d006520 <_filbuf+0xe8>
9d0064c4:	9604000e 	lhu	a0,14(s0)
9d0064c8:	0f4019d0 	jal	9d006740 <read>
9d0064cc:	8e050008 	lw	a1,8(s0)
9d0064d0:	10400030 	beqz	v0,9d006594 <_filbuf+0x15c>
9d0064d4:	ae020004 	sw	v0,4(s0)
9d0064d8:	2403ffff 	li	v1,-1
9d0064dc:	50430035 	beql	v0,v1,9d0065b4 <_filbuf+0x17c>
9d0064e0:	9602000c 	lhu	v0,12(s0)
9d0064e4:	8e030008 	lw	v1,8(s0)
9d0064e8:	2442ffff 	addiu	v0,v0,-1
9d0064ec:	ae030000 	sw	v1,0(s0)
9d0064f0:	ae020004 	sw	v0,4(s0)
9d0064f4:	24640001 	addiu	a0,v1,1
9d0064f8:	90620000 	lbu	v0,0(v1)
9d0064fc:	ae040000 	sw	a0,0(s0)
9d006500:	8fbf002c 	lw	ra,44(sp)
9d006504:	8fb40028 	lw	s4,40(sp)
9d006508:	8fb30024 	lw	s3,36(sp)
9d00650c:	8fb20020 	lw	s2,32(sp)
9d006510:	8fb1001c 	lw	s1,28(sp)
9d006514:	8fb00018 	lw	s0,24(sp)
9d006518:	03e00008 	jr	ra
9d00651c:	27bd0030 	addiu	sp,sp,48
9d006520:	ae000004 	sw	zero,4(s0)
9d006524:	27a50010 	addiu	a1,sp,16
9d006528:	0f4019d0 	jal	9d006740 <read>
9d00652c:	24060001 	li	a2,1
9d006530:	24030001 	li	v1,1
9d006534:	14430012 	bne	v0,v1,9d006580 <_filbuf+0x148>
9d006538:	8fbf002c 	lw	ra,44(sp)
9d00653c:	93a20010 	lbu	v0,16(sp)
9d006540:	8fb40028 	lw	s4,40(sp)
9d006544:	8fb30024 	lw	s3,36(sp)
9d006548:	8fb20020 	lw	s2,32(sp)
9d00654c:	8fb1001c 	lw	s1,28(sp)
9d006550:	8fb00018 	lw	s0,24(sp)
9d006554:	03e00008 	jr	ra
9d006558:	27bd0030 	addiu	sp,sp,48
9d00655c:	8fbf002c 	lw	ra,44(sp)
9d006560:	2402ffff 	li	v0,-1
9d006564:	8fb40028 	lw	s4,40(sp)
9d006568:	8fb30024 	lw	s3,36(sp)
9d00656c:	8fb20020 	lw	s2,32(sp)
9d006570:	8fb1001c 	lw	s1,28(sp)
9d006574:	8fb00018 	lw	s0,24(sp)
9d006578:	03e00008 	jr	ra
9d00657c:	27bd0030 	addiu	sp,sp,48
9d006580:	9603000c 	lhu	v1,12(s0)
9d006584:	2402ffff 	li	v0,-1
9d006588:	34630010 	ori	v1,v1,0x10
9d00658c:	0b401940 	j	9d006500 <_filbuf+0xc8>
9d006590:	a603000c 	sh	v1,12(s0)
9d006594:	9602000c 	lhu	v0,12(s0)
9d006598:	34420010 	ori	v0,v0,0x10
9d00659c:	a602000c 	sh	v0,12(s0)
9d0065a0:	8e020008 	lw	v0,8(s0)
9d0065a4:	ae000004 	sw	zero,4(s0)
9d0065a8:	ae020000 	sw	v0,0(s0)
9d0065ac:	0b401940 	j	9d006500 <_filbuf+0xc8>
9d0065b0:	2402ffff 	li	v0,-1
9d0065b4:	34420030 	ori	v0,v0,0x30
9d0065b8:	0b401968 	j	9d0065a0 <_filbuf+0x168>
9d0065bc:	a602000c 	sh	v0,12(s0)

Disassembly of section .dinit:

9d0065c0 <.dinit>:
9d0065c0:	a000003c 	sb	zero,60(zero)
9d0065c4:	00000020 	add	zero,zero,zero
9d0065c8:	00000000 	nop
9d0065cc:	a0000030 	sb	zero,48(zero)
9d0065d0:	00000004 	sllv	zero,zero,zero
9d0065d4:	00000001 	movf	zero,zero,$fcc0
9d0065d8:	ffffffff 	sdc3	$31,-1(ra)
9d0065dc:	a0000064 	sb	zero,100(zero)
9d0065e0:	000015e0 	0x15e0
9d0065e4:	00000000 	nop
9d0065e8:	a0001724 	sb	zero,5924(zero)
9d0065ec:	00000004 	sllv	zero,zero,zero
9d0065f0:	00000000 	nop
9d0065f4:	a0001644 	sb	zero,5700(zero)
9d0065f8:	000000a0 	0xa0
9d0065fc:	00000001 	movf	zero,zero,$fcc0
9d006600:	a00016e4 	sb	zero,5860(zero)
9d006604:	00000000 	nop
9d006608:	a00016e4 	sb	zero,5860(zero)
9d00660c:	00000009 	jalr	zero,zero
9d006610:	00000020 	add	zero,zero,zero
9d006614:	a0001704 	sb	zero,5892(zero)
9d006618:	00000000 	nop
9d00661c:	a0001704 	sb	zero,5892(zero)
9d006620:	0001020e 	0x1020e
	...
9d006634:	00020206 	0x20206
	...
9d0066a0:	a00016e4 	sb	zero,5860(zero)
9d0066a4:	00000040 	ssnop
9d0066a8:	00000000 	nop
9d0066ac:	a0000034 	sb	zero,52(zero)
9d0066b0:	00000004 	sllv	zero,zero,zero
9d0066b4:	00000001 	movf	zero,zero,$fcc0
9d0066b8:	a0001644 	sb	zero,5700(zero)
9d0066bc:	a000005c 	sb	zero,92(zero)
9d0066c0:	00000001 	movf	zero,zero,$fcc0
9d0066c4:	00000000 	nop
9d0066c8:	a0000038 	sb	zero,56(zero)
9d0066cc:	00000004 	sllv	zero,zero,zero
9d0066d0:	00000001 	movf	zero,zero,$fcc0
9d0066d4:	00000002 	srl	zero,zero,0x0
9d0066d8:	a0000000 	sb	zero,0(zero)
9d0066dc:	00000020 	add	zero,zero,zero
9d0066e0:	00000001 	movf	zero,zero,$fcc0
9d0066e4:	0000000c 	syscall
9d0066e8:	00000000 	nop
9d0066ec:	7c010001 	0x7c010001
9d0066f0:	001d0c1f 	0x1d0c1f
9d0066f4:	0000000c 	syscall
9d0066f8:	00000014 	0x14
9d0066fc:	9d003d38 	0x9d003d38
9d006700:	0000045c 	0x45c
9d006704:	a0000020 	sb	zero,32(zero)
9d006708:	00000010 	mfhi	zero
9d00670c:	00000001 	movf	zero,zero,$fcc0
9d006710:	0000000c 	syscall
9d006714:	00000024 	and	zero,zero,zero
9d006718:	3a008328 	xori	zero,s0,0x8328
9d00671c:	00000448 	0x448
9d006720:	a0000060 	sb	zero,96(zero)
9d006724:	00000004 	sllv	zero,zero,zero
	...
9d006730:	22222222 	addi	v0,s1,8738
9d006734:	22222222 	addi	v0,s1,8738
9d006738:	22222222 	addi	v0,s1,8738
9d00673c:	22222222 	addi	v0,s1,8738

Disassembly of section .text.read:

9d006740 <read>:
9d006740:	27bdffe0 	addiu	sp,sp,-32
9d006744:	afb00010 	sw	s0,16(sp)
9d006748:	afbf001c 	sw	ra,28(sp)
9d00674c:	afb20018 	sw	s2,24(sp)
9d006750:	afb10014 	sw	s1,20(sp)
9d006754:	10a0001c 	beqz	a1,9d0067c8 <read+0x88>
9d006758:	00a08021 	move	s0,a1
9d00675c:	50c0001b 	beqzl	a2,9d0067cc <read+0x8c>
9d006760:	8fbf001c 	lw	ra,28(sp)
9d006764:	14800011 	bnez	a0,9d0067ac <read+0x6c>
9d006768:	00c09021 	move	s2,a2
9d00676c:	3c020000 	lui	v0,0x0
9d006770:	24420000 	addiu	v0,v0,0
9d006774:	1040001c 	beqz	v0,9d0067e8 <read+0xa8>
9d006778:	00a68821 	addu	s1,a1,a2
9d00677c:	0c000000 	jal	90000000 <_bmxdkpba_address+0x8ffe0000>
9d006780:	24040001 	li	a0,1
9d006784:	a2020000 	sb	v0,0(s0)
9d006788:	26100001 	addiu	s0,s0,1
9d00678c:	1611fffb 	bne	s0,s1,9d00677c <read+0x3c>
9d006790:	8fbf001c 	lw	ra,28(sp)
9d006794:	02401021 	move	v0,s2
9d006798:	8fb10014 	lw	s1,20(sp)
9d00679c:	8fb20018 	lw	s2,24(sp)
9d0067a0:	8fb00010 	lw	s0,16(sp)
9d0067a4:	03e00008 	jr	ra
9d0067a8:	27bd0020 	addiu	sp,sp,32
9d0067ac:	8fbf001c 	lw	ra,28(sp)
9d0067b0:	02401021 	move	v0,s2
9d0067b4:	8fb10014 	lw	s1,20(sp)
9d0067b8:	8fb20018 	lw	s2,24(sp)
9d0067bc:	8fb00010 	lw	s0,16(sp)
9d0067c0:	03e00008 	jr	ra
9d0067c4:	27bd0020 	addiu	sp,sp,32
9d0067c8:	8fbf001c 	lw	ra,28(sp)
9d0067cc:	00009021 	move	s2,zero
9d0067d0:	02401021 	move	v0,s2
9d0067d4:	8fb10014 	lw	s1,20(sp)
9d0067d8:	8fb20018 	lw	s2,24(sp)
9d0067dc:	8fb00010 	lw	s0,16(sp)
9d0067e0:	03e00008 	jr	ra
9d0067e4:	27bd0020 	addiu	sp,sp,32
9d0067e8:	3c02a000 	lui	v0,0xa000
9d0067ec:	8c430038 	lw	v1,56(v0)
9d0067f0:	24020002 	li	v0,2
9d0067f4:	10620024 	beq	v1,v0,9d006888 <read+0x148>
9d0067f8:	3c02bf80 	lui	v0,0xbf80
9d0067fc:	3c02bf80 	lui	v0,0xbf80
9d006800:	3c05bf80 	lui	a1,0xbf80
9d006804:	3c04bf80 	lui	a0,0xbf80
9d006808:	8c426000 	lw	v0,24576(v0)
9d00680c:	24a56030 	addiu	a1,a1,24624
9d006810:	24846010 	addiu	a0,a0,24592
9d006814:	30428000 	andi	v0,v0,0x8000
9d006818:	14400005 	bnez	v0,9d006830 <read+0xf0>
9d00681c:	00c09021 	move	s2,a2
9d006820:	34038000 	li	v1,0x8000
9d006824:	3c02bf80 	lui	v0,0xbf80
9d006828:	ac436008 	sw	v1,24584(v0)
9d00682c:	00c09021 	move	s2,a2
9d006830:	8c820000 	lw	v0,0(a0)
9d006834:	30420001 	andi	v0,v0,0x1
9d006838:	14400009 	bnez	v0,9d006860 <read+0x120>
9d00683c:	240200a0 	li	v0,160
9d006840:	0b401a14 	j	9d006850 <read+0x110>
9d006844:	00000000 	nop
9d006848:	10400005 	beqz	v0,9d006860 <read+0x120>
9d00684c:	00000000 	nop
9d006850:	8c830000 	lw	v1,0(a0)
9d006854:	30630001 	andi	v1,v1,0x1
9d006858:	1060fffb 	beqz	v1,9d006848 <read+0x108>
9d00685c:	2442ffff 	addiu	v0,v0,-1
9d006860:	8c820000 	lw	v0,0(a0)
9d006864:	30420001 	andi	v0,v0,0x1
9d006868:	5440ffd0 	bnezl	v0,9d0067ac <read+0x6c>
9d00686c:	00d29023 	subu	s2,a2,s2
9d006870:	8ca20000 	lw	v0,0(a1)
9d006874:	2652ffff 	addiu	s2,s2,-1
9d006878:	1240000c 	beqz	s2,9d0068ac <read+0x16c>
9d00687c:	a2020000 	sb	v0,0(s0)
9d006880:	0b401a0c 	j	9d006830 <read+0xf0>
9d006884:	26100001 	addiu	s0,s0,1
9d006888:	24426840 	addiu	v0,v0,26688
9d00688c:	1040ffdb 	beqz	v0,9d0067fc <read+0xbc>
9d006890:	3c02bf80 	lui	v0,0xbf80
9d006894:	3c05bf80 	lui	a1,0xbf80
9d006898:	3c04bf80 	lui	a0,0xbf80
9d00689c:	8c426800 	lw	v0,26624(v0)
9d0068a0:	24a56830 	addiu	a1,a1,26672
9d0068a4:	0b401a05 	j	9d006814 <read+0xd4>
9d0068a8:	24846810 	addiu	a0,a0,26640
9d0068ac:	0b4019eb 	j	9d0067ac <read+0x6c>
9d0068b0:	00d29023 	subu	s2,a2,s2

Disassembly of section .text.fputc:

9d0068b4 <fputc>:
9d0068b4:	94a2000c 	lhu	v0,12(a1)
9d0068b8:	27bdffe0 	addiu	sp,sp,-32
9d0068bc:	30430002 	andi	v1,v0,0x2
9d0068c0:	afb00014 	sw	s0,20(sp)
9d0068c4:	afbf001c 	sw	ra,28(sp)
9d0068c8:	afb10018 	sw	s1,24(sp)
9d0068cc:	1060002b 	beqz	v1,9d00697c <fputc+0xc8>
9d0068d0:	00a08021 	move	s0,a1
9d0068d4:	30430200 	andi	v1,v0,0x200
9d0068d8:	1060001c 	beqz	v1,9d00694c <fputc+0x98>
9d0068dc:	8ca30004 	lw	v1,4(a1)
9d0068e0:	34420200 	ori	v0,v0,0x200
9d0068e4:	a4a2000c 	sh	v0,12(a1)
9d0068e8:	1060001d 	beqz	v1,9d006960 <fputc+0xac>
9d0068ec:	309100ff 	andi	s1,a0,0xff
9d0068f0:	2404000a 	li	a0,10
9d0068f4:	12240028 	beq	s1,a0,9d006998 <fputc+0xe4>
9d0068f8:	30420080 	andi	v0,v0,0x80
9d0068fc:	8e020010 	lw	v0,16(s0)
9d006900:	1062003e 	beq	v1,v0,9d0069fc <fputc+0x148>
9d006904:	24630001 	addiu	v1,v1,1
9d006908:	8e020000 	lw	v0,0(s0)
9d00690c:	24440001 	addiu	a0,v0,1
9d006910:	ae030004 	sw	v1,4(s0)
9d006914:	a0510000 	sb	s1,0(v0)
9d006918:	24030001 	li	v1,1
9d00691c:	3c02a000 	lui	v0,0xa000
9d006920:	ae040000 	sw	a0,0(s0)
9d006924:	a043005c 	sb	v1,92(v0)
9d006928:	2402000a 	li	v0,10
9d00692c:	52220021 	beql	s1,v0,9d0069b4 <fputc+0x100>
9d006930:	9602000c 	lhu	v0,12(s0)
9d006934:	8fbf001c 	lw	ra,28(sp)
9d006938:	02201021 	move	v0,s1
9d00693c:	8fb00014 	lw	s0,20(sp)
9d006940:	8fb10018 	lw	s1,24(sp)
9d006944:	03e00008 	jr	ra
9d006948:	27bd0020 	addiu	sp,sp,32
9d00694c:	1460000b 	bnez	v1,9d00697c <fputc+0xc8>
9d006950:	34420200 	ori	v0,v0,0x200
9d006954:	a4a2000c 	sh	v0,12(a1)
9d006958:	309100ff 	andi	s1,a0,0xff
9d00695c:	00001821 	move	v1,zero
9d006960:	8e040008 	lw	a0,8(s0)
9d006964:	ae040000 	sw	a0,0(s0)
9d006968:	2404000a 	li	a0,10
9d00696c:	5624ffe4 	bnel	s1,a0,9d006900 <fputc+0x4c>
9d006970:	8e020010 	lw	v0,16(s0)
9d006974:	0b401a66 	j	9d006998 <fputc+0xe4>
9d006978:	30420080 	andi	v0,v0,0x80
9d00697c:	8fbf001c 	lw	ra,28(sp)
9d006980:	2411ffff 	li	s1,-1
9d006984:	02201021 	move	v0,s1
9d006988:	8fb00014 	lw	s0,20(sp)
9d00698c:	8fb10018 	lw	s1,24(sp)
9d006990:	03e00008 	jr	ra
9d006994:	27bd0020 	addiu	sp,sp,32
9d006998:	5440ffd9 	bnezl	v0,9d006900 <fputc+0x4c>
9d00699c:	8e020010 	lw	v0,16(s0)
9d0069a0:	2404000d 	li	a0,13
9d0069a4:	0f401a2d 	jal	9d0068b4 <fputc>
9d0069a8:	02002821 	move	a1,s0
9d0069ac:	0b401a3f 	j	9d0068fc <fputc+0x48>
9d0069b0:	8e030004 	lw	v1,4(s0)
9d0069b4:	30420100 	andi	v0,v0,0x100
9d0069b8:	1040ffdf 	beqz	v0,9d006938 <fputc+0x84>
9d0069bc:	8fbf001c 	lw	ra,28(sp)
9d0069c0:	9604000e 	lhu	a0,14(s0)
9d0069c4:	8e050008 	lw	a1,8(s0)
9d0069c8:	0f401d0e 	jal	9d007438 <.LFE0>
9d0069cc:	8e060004 	lw	a2,4(s0)
9d0069d0:	8e030004 	lw	v1,4(s0)
9d0069d4:	50430006 	beql	v0,v1,9d0069f0 <fputc+0x13c>
9d0069d8:	8e020008 	lw	v0,8(s0)
9d0069dc:	9602000c 	lhu	v0,12(s0)
9d0069e0:	2411ffff 	li	s1,-1
9d0069e4:	34420030 	ori	v0,v0,0x30
9d0069e8:	a602000c 	sh	v0,12(s0)
9d0069ec:	8e020008 	lw	v0,8(s0)
9d0069f0:	ae000004 	sw	zero,4(s0)
9d0069f4:	0b401a4d 	j	9d006934 <fputc+0x80>
9d0069f8:	ae020000 	sw	v0,0(s0)
9d0069fc:	7c112420 	seb	a0,s1
9d006a00:	0f401a84 	jal	9d006a10 <.LFE0>
9d006a04:	02002821 	move	a1,s0
9d006a08:	0b401a4d 	j	9d006934 <fputc+0x80>
9d006a0c:	00408821 	move	s1,v0

Disassembly of section .text._flsbuf:

9d006a10 <_flsbuf>:
9d006a10:	94a2000c 	lhu	v0,12(a1)
9d006a14:	27bdffe8 	addiu	sp,sp,-24
9d006a18:	30430040 	andi	v1,v0,0x40
9d006a1c:	afb00010 	sw	s0,16(sp)
9d006a20:	afbf0014 	sw	ra,20(sp)
9d006a24:	00a08021 	move	s0,a1
9d006a28:	1460001c 	bnez	v1,9d006a9c <_flsbuf+0x8c>
9d006a2c:	a3a40018 	sb	a0,24(sp)
9d006a30:	30430002 	andi	v1,v0,0x2
9d006a34:	5060003d 	beqzl	v1,9d006b2c <_flsbuf+0x11c>
9d006a38:	34420030 	ori	v0,v0,0x30
9d006a3c:	8ca30010 	lw	v1,16(a1)
9d006a40:	5060001b 	beqzl	v1,9d006ab0 <_flsbuf+0xa0>
9d006a44:	94a4000e 	lhu	a0,14(a1)
9d006a48:	8ca50008 	lw	a1,8(a1)
9d006a4c:	50a0002d 	beqzl	a1,9d006b04 <_flsbuf+0xf4>
9d006a50:	3c05a000 	lui	a1,0xa000
9d006a54:	8e060004 	lw	a2,4(s0)
9d006a58:	0f401d0e 	jal	9d007438 <.LFE0>
9d006a5c:	9604000e 	lhu	a0,14(s0)
9d006a60:	2402ffff 	li	v0,-1
9d006a64:	8e030008 	lw	v1,8(s0)
9d006a68:	ae020004 	sw	v0,4(s0)
9d006a6c:	93a20018 	lbu	v0,24(sp)
9d006a70:	a0620000 	sb	v0,0(v1)
9d006a74:	83a20018 	lb	v0,24(sp)
9d006a78:	24630001 	addiu	v1,v1,1
9d006a7c:	ae030000 	sw	v1,0(s0)
9d006a80:	2403000a 	li	v1,10
9d006a84:	50430013 	beql	v0,v1,9d006ad4 <_flsbuf+0xc4>
9d006a88:	9603000c 	lhu	v1,12(s0)
9d006a8c:	8fbf0014 	lw	ra,20(sp)
9d006a90:	8fb00010 	lw	s0,16(sp)
9d006a94:	03e00008 	jr	ra
9d006a98:	27bd0018 	addiu	sp,sp,24
9d006a9c:	8fbf0014 	lw	ra,20(sp)
9d006aa0:	7c041420 	seb	v0,a0
9d006aa4:	8fb00010 	lw	s0,16(sp)
9d006aa8:	03e00008 	jr	ra
9d006aac:	27bd0018 	addiu	sp,sp,24
9d006ab0:	24060001 	li	a2,1
9d006ab4:	0f401d0e 	jal	9d007438 <.LFE0>
9d006ab8:	27a50018 	addiu	a1,sp,24
9d006abc:	8fbf0014 	lw	ra,20(sp)
9d006ac0:	83a20018 	lb	v0,24(sp)
9d006ac4:	ae000004 	sw	zero,4(s0)
9d006ac8:	8fb00010 	lw	s0,16(sp)
9d006acc:	03e00008 	jr	ra
9d006ad0:	27bd0018 	addiu	sp,sp,24
9d006ad4:	30630100 	andi	v1,v1,0x100
9d006ad8:	1060ffed 	beqz	v1,9d006a90 <_flsbuf+0x80>
9d006adc:	8fbf0014 	lw	ra,20(sp)
9d006ae0:	9604000e 	lhu	a0,14(s0)
9d006ae4:	8e050008 	lw	a1,8(s0)
9d006ae8:	0f401d0e 	jal	9d007438 <.LFE0>
9d006aec:	8e060004 	lw	a2,4(s0)
9d006af0:	8e030008 	lw	v1,8(s0)
9d006af4:	83a20018 	lb	v0,24(sp)
9d006af8:	ae000004 	sw	zero,4(s0)
9d006afc:	0b401aa3 	j	9d006a8c <_flsbuf+0x7c>
9d006b00:	ae030000 	sw	v1,0(s0)
9d006b04:	24a51704 	addiu	a1,a1,5892
9d006b08:	24030020 	li	v1,32
9d006b0c:	34420008 	ori	v0,v0,0x8
9d006b10:	ae050008 	sw	a1,8(s0)
9d006b14:	ae050000 	sw	a1,0(s0)
9d006b18:	ae030010 	sw	v1,16(s0)
9d006b1c:	ae030004 	sw	v1,4(s0)
9d006b20:	a602000c 	sh	v0,12(s0)
9d006b24:	0b401a96 	j	9d006a58 <_flsbuf+0x48>
9d006b28:	24060020 	li	a2,32
9d006b2c:	a4a2000c 	sh	v0,12(a1)
9d006b30:	aca00004 	sw	zero,4(a1)
9d006b34:	0b401aa3 	j	9d006a8c <_flsbuf+0x7c>
9d006b38:	2402ffff 	li	v0,-1

Disassembly of section .text.fgetc:

9d006b3c <fgetc>:
9d006b3c:	9483000c 	lhu	v1,12(a0)
9d006b40:	27bdffe0 	addiu	sp,sp,-32
9d006b44:	afb00010 	sw	s0,16(sp)
9d006b48:	24020001 	li	v0,1
9d006b4c:	00808021 	move	s0,a0
9d006b50:	30640011 	andi	a0,v1,0x11
9d006b54:	afbf001c 	sw	ra,28(sp)
9d006b58:	afb20018 	sw	s2,24(sp)
9d006b5c:	14820030 	bne	a0,v0,9d006c20 <fgetc+0xe4>
9d006b60:	afb10014 	sw	s1,20(sp)
9d006b64:	30620200 	andi	v0,v1,0x200
9d006b68:	14400018 	bnez	v0,9d006bcc <fgetc+0x90>
9d006b6c:	8e020004 	lw	v0,4(s0)
9d006b70:	3063fdff 	andi	v1,v1,0xfdff
9d006b74:	a603000c 	sh	v1,12(s0)
9d006b78:	2411001a 	li	s1,26
9d006b7c:	2412000d 	li	s2,13
9d006b80:	18400018 	blez	v0,9d006be4 <fgetc+0xa8>
9d006b84:	2444ffff 	addiu	a0,v0,-1
9d006b88:	8e020000 	lw	v0,0(s0)
9d006b8c:	ae040004 	sw	a0,4(s0)
9d006b90:	24440001 	addiu	a0,v0,1
9d006b94:	90420000 	lbu	v0,0(v0)
9d006b98:	ae040000 	sw	a0,0(s0)
9d006b9c:	30640080 	andi	a0,v1,0x80
9d006ba0:	14800005 	bnez	a0,9d006bb8 <fgetc+0x7c>
9d006ba4:	8fbf001c 	lw	ra,28(sp)
9d006ba8:	50510015 	beql	v0,s1,9d006c00 <fgetc+0xc4>
9d006bac:	8e020008 	lw	v0,8(s0)
9d006bb0:	5052000a 	beql	v0,s2,9d006bdc <fgetc+0xa0>
9d006bb4:	8e020004 	lw	v0,4(s0)
9d006bb8:	8fb20018 	lw	s2,24(sp)
9d006bbc:	8fb10014 	lw	s1,20(sp)
9d006bc0:	8fb00010 	lw	s0,16(sp)
9d006bc4:	03e00008 	jr	ra
9d006bc8:	27bd0020 	addiu	sp,sp,32
9d006bcc:	14400014 	bnez	v0,9d006c20 <fgetc+0xe4>
9d006bd0:	00001021 	move	v0,zero
9d006bd4:	0b401add 	j	9d006b74 <fgetc+0x38>
9d006bd8:	3063fdff 	andi	v1,v1,0xfdff
9d006bdc:	1c40ffea 	bgtz	v0,9d006b88 <fgetc+0x4c>
9d006be0:	2444ffff 	addiu	a0,v0,-1
9d006be4:	30620040 	andi	v0,v1,0x40
9d006be8:	1440000d 	bnez	v0,9d006c20 <fgetc+0xe4>
9d006bec:	02002021 	move	a0,s0
9d006bf0:	0f40190e 	jal	9d006438 <_filbuf>
9d006bf4:	00000000 	nop
9d006bf8:	0b401ae7 	j	9d006b9c <fgetc+0x60>
9d006bfc:	9603000c 	lhu	v1,12(s0)
9d006c00:	10400008 	beqz	v0,9d006c24 <fgetc+0xe8>
9d006c04:	8fbf001c 	lw	ra,28(sp)
9d006c08:	8e040004 	lw	a0,4(s0)
9d006c0c:	8e020000 	lw	v0,0(s0)
9d006c10:	24840001 	addiu	a0,a0,1
9d006c14:	2442ffff 	addiu	v0,v0,-1
9d006c18:	ae040004 	sw	a0,4(s0)
9d006c1c:	ae020000 	sw	v0,0(s0)
9d006c20:	8fbf001c 	lw	ra,28(sp)
9d006c24:	34630010 	ori	v1,v1,0x10
9d006c28:	a603000c 	sh	v1,12(s0)
9d006c2c:	2402ffff 	li	v0,-1
9d006c30:	8fb20018 	lw	s2,24(sp)
9d006c34:	8fb10014 	lw	s1,20(sp)
9d006c38:	8fb00010 	lw	s0,16(sp)
9d006c3c:	03e00008 	jr	ra
9d006c40:	27bd0020 	addiu	sp,sp,32

Disassembly of section .rodata:

9d006c44 <_ctype>:
9d006c44:	20202000 20202020 28282020 20282828     .         ((((( 
9d006c54:	20202020 20202020 20202020 20202020                     
9d006c64:	10108020 10101010 10101010 10101010      ...............
9d006c74:	04040410 04040404 10040404 10101010     ................
9d006c84:	41411010 41414141 01010101 01010101     ..AAAAAA........
9d006c94:	01010101 01010101 01010101 10101010     ................
9d006ca4:	42421010 42424242 02020202 02020202     ..BBBBBB........
9d006cb4:	02020202 02020202 02020202 10101010     ................
9d006cc4:	00000020 00000000 00000000 00000000      ...............
	...

Disassembly of section .text.__ldexpf:

9d006d48 <__ldexpf>:
9d006d48:	7c833dc0 	ext	v1,a0,0x17,0x8
9d006d4c:	00801021 	move	v0,a0
9d006d50:	2464ffff 	addiu	a0,v1,-1
9d006d54:	2c8400fe 	sltiu	a0,a0,254
9d006d58:	00023fc2 	srl	a3,v0,0x1f
9d006d5c:	1080002d 	beqz	a0,9d006e14 <__ldexpf+0xcc>
9d006d60:	7c46b000 	ext	a2,v0,0x0,0x17
9d006d64:	3c020080 	lui	v0,0x80
9d006d68:	2463ff81 	addiu	v1,v1,-127
9d006d6c:	00c21025 	or	v0,a2,v0
9d006d70:	24a5007f 	addiu	a1,a1,127
9d006d74:	00a31821 	addu	v1,a1,v1
9d006d78:	1860001a 	blez	v1,9d006de4 <__ldexpf+0x9c>
9d006d7c:	000210c0 	sll	v0,v0,0x3
9d006d80:	30440007 	andi	a0,v0,0x7
9d006d84:	1480000f 	bnez	a0,9d006dc4 <__ldexpf+0x7c>
9d006d88:	7c4400c0 	ext	a0,v0,0x3,0x1
9d006d8c:	286400ff 	slti	a0,v1,255
9d006d90:	50800029 	beqzl	a0,9d006e38 <__ldexpf+0xf0>
9d006d94:	00071200 	sll	v0,a3,0x8
9d006d98:	000210c2 	srl	v0,v0,0x3
9d006d9c:	7c4405c0 	ext	a0,v0,0x17,0x1
9d006da0:	50800002 	beqzl	a0,9d006dac <__ldexpf+0x64>
9d006da4:	00001821 	move	v1,zero
9d006da8:	7c42b000 	ext	v0,v0,0x0,0x17
9d006dac:	00073a00 	sll	a3,a3,0x8
9d006db0:	00671825 	or	v1,v1,a3
9d006db4:	00031dc0 	sll	v1,v1,0x17
9d006db8:	00621025 	or	v0,v1,v0
9d006dbc:	03e00008 	jr	ra
9d006dc0:	00000000 	nop
9d006dc4:	24420003 	addiu	v0,v0,3
9d006dc8:	00441021 	addu	v0,v0,a0
9d006dcc:	000226c2 	srl	a0,v0,0x1b
9d006dd0:	1080ffef 	beqz	a0,9d006d90 <__ldexpf+0x48>
9d006dd4:	286400ff 	slti	a0,v1,255
9d006dd8:	00021042 	srl	v0,v0,0x1
9d006ddc:	0b401b63 	j	9d006d8c <__ldexpf+0x44>
9d006de0:	24630001 	addiu	v1,v1,1
9d006de4:	24040001 	li	a0,1
9d006de8:	00831823 	subu	v1,a0,v1
9d006dec:	2864001b 	slti	a0,v1,27
9d006df0:	50800014 	beqzl	a0,9d006e44 <__ldexpf+0xfc>
9d006df4:	00001021 	move	v0,zero
9d006df8:	00032023 	negu	a0,v1
9d006dfc:	00822004 	sllv	a0,v0,a0
9d006e00:	00621806 	srlv	v1,v0,v1
9d006e04:	0004102b 	sltu	v0,zero,a0
9d006e08:	00431025 	or	v0,v0,v1
9d006e0c:	0b401b60 	j	9d006d80 <__ldexpf+0x38>
9d006e10:	24030001 	li	v1,1
9d006e14:	1460ffe9 	bnez	v1,9d006dbc <__ldexpf+0x74>
9d006e18:	00000000 	nop
9d006e1c:	10c0ffe7 	beqz	a2,9d006dbc <__ldexpf+0x74>
9d006e20:	70c31820 	clz	v1,a2
9d006e24:	2463fff8 	addiu	v1,v1,-8
9d006e28:	2404ff82 	li	a0,-126
9d006e2c:	00661004 	sllv	v0,a2,v1
9d006e30:	0b401b5c 	j	9d006d70 <__ldexpf+0x28>
9d006e34:	00831823 	subu	v1,a0,v1
9d006e38:	344200ff 	ori	v0,v0,0xff
9d006e3c:	03e00008 	jr	ra
9d006e40:	000215c0 	sll	v0,v0,0x17
9d006e44:	0b401b6b 	j	9d006dac <__ldexpf+0x64>
9d006e48:	00001821 	move	v1,zero

Disassembly of section .text.dptofp:

9d006e4c <__truncdfsf2>:
9d006e4c:	00053ac0 00045d42 00eb3825 000432c0     .:..B]..%8...2..
9d006e5c:	3c018000 00e13825 3c018000 00a14824     ...<%8.....<$H..
9d006e6c:	00054040 00084542 2508fc80 250bffff     @@..BE.....%...%
9d006e7c:	2d6100fe 10200012 00000000              ..a-.. .....

9d006e88 <Hlab1>:
9d006e88:	10c00002 	beqz	a2,9d006e94 <i45>
9d006e8c:	00000000 	nop
9d006e90:	34e70001 	ori	a3,a3,0x1

9d006e94 <i45>:
9d006e94:	24e70080 	addiu	a3,a3,128
9d006e98:	2ceb0080 	sltiu	t3,a3,128
9d006e9c:	010b4021 	addu	t0,t0,t3
9d006ea0:	00075a02 	srl	t3,a3,0x8
9d006ea4:	316b0001 	andi	t3,t3,0x1
9d006ea8:	00eb3823 	subu	a3,a3,t3
9d006eac:	00073840 	sll	a3,a3,0x1
9d006eb0:	00073a42 	srl	a3,a3,0x9
9d006eb4:	00085dc0 	sll	t3,t0,0x17
9d006eb8:	00eb3825 	or	a3,a3,t3
9d006ebc:	00e91025 	or	v0,a3,t1

9d006ec0 <H999>:
9d006ec0:	03e00008 	jr	ra
9d006ec4:	00000000 	nop
9d006ec8:	00000000 	nop

9d006ecc <Hspec>:
9d006ecc:	2401047f 	li	at,1151
9d006ed0:	15010007 	bne	t0,at,9d006ef0 <i46>
9d006ed4:	00000000 	nop
9d006ed8:	00075840 	sll	t3,a3,0x1
9d006edc:	01665825 	or	t3,t3,a2
9d006ee0:	11600003 	beqz	t3,9d006ef0 <i46>
9d006ee4:	00000000 	nop
9d006ee8:	1000fff5 	b	9d006ec0 <H999>
9d006eec:	3c02ffc0 	lui	v0,0xffc0

9d006ef0 <i46>:
9d006ef0:	290100ff 	slti	at,t0,255
9d006ef4:	14200004 	bnez	at,9d006f08 <i48>
9d006ef8:	00000000 	nop
9d006efc:	3c017f80 	lui	at,0x7f80
9d006f00:	1000ffef 	b	9d006ec0 <H999>
9d006f04:	01211025 	or	v0,t1,at

9d006f08 <i48>:
9d006f08:	240a0001 	li	t2,1
9d006f0c:	01485023 	subu	t2,t2,t0
9d006f10:	2d410020 	sltiu	at,t2,32
9d006f14:	14200003 	bnez	at,9d006f24 <i49>
9d006f18:	00000000 	nop
9d006f1c:	1000ffe8 	b	9d006ec0 <H999>
9d006f20:	00091025 	or	v0,zero,t1

9d006f24 <i49>:
9d006f24:	240c0020 	li	t4,32
9d006f28:	018a6023 	subu	t4,t4,t2
9d006f2c:	01875804 	sllv	t3,a3,t4
9d006f30:	00cb3025 	or	a2,a2,t3
9d006f34:	01473806 	srlv	a3,a3,t2
9d006f38:	24080000 	li	t0,0
9d006f3c:	3c018000 	lui	at,0x8000
9d006f40:	1000ffd1 	b	9d006e88 <Hlab1>
9d006f44:	00e13825 	or	a3,a3,at
9d006f48:	00000000 	nop

Disassembly of section .text.general_exception:

9d006f4c <_general_exception_context>:
9d006f4c:	27bdffa8 	addiu	sp,sp,-88
9d006f50:	afa10004 	sw	at,4(sp)
9d006f54:	afa20008 	sw	v0,8(sp)
9d006f58:	afa3000c 	sw	v1,12(sp)
9d006f5c:	afa40010 	sw	a0,16(sp)
9d006f60:	afa50014 	sw	a1,20(sp)
9d006f64:	afa60018 	sw	a2,24(sp)
9d006f68:	afa7001c 	sw	a3,28(sp)
9d006f6c:	afa80020 	sw	t0,32(sp)
9d006f70:	afa90024 	sw	t1,36(sp)
9d006f74:	afaa0028 	sw	t2,40(sp)
9d006f78:	afab002c 	sw	t3,44(sp)
9d006f7c:	afac0030 	sw	t4,48(sp)
9d006f80:	afad0034 	sw	t5,52(sp)
9d006f84:	afae0038 	sw	t6,56(sp)
9d006f88:	afaf003c 	sw	t7,60(sp)
9d006f8c:	afb80040 	sw	t8,64(sp)
9d006f90:	afb90044 	sw	t9,68(sp)
9d006f94:	afbf0048 	sw	ra,72(sp)
9d006f98:	00004012 	mflo	t0
9d006f9c:	afa8004c 	sw	t0,76(sp)
9d006fa0:	00004010 	mfhi	t0
9d006fa4:	afa80050 	sw	t0,80(sp)
9d006fa8:	3c1a9d00 	lui	k0,0x9d00
9d006fac:	275a77d0 	addiu	k0,k0,30672
9d006fb0:	00000000 	nop
9d006fb4:	40046800 	mfc0	a0,c0_cause
9d006fb8:	40056000 	mfc0	a1,c0_status
9d006fbc:	0340f809 	jalr	k0
9d006fc0:	00000000 	nop
9d006fc4:	8fa80050 	lw	t0,80(sp)
9d006fc8:	01000011 	mthi	t0
9d006fcc:	8fa8004c 	lw	t0,76(sp)
9d006fd0:	01000013 	mtlo	t0
9d006fd4:	8fa10004 	lw	at,4(sp)
9d006fd8:	8fa20008 	lw	v0,8(sp)
9d006fdc:	8fa3000c 	lw	v1,12(sp)
9d006fe0:	8fa40010 	lw	a0,16(sp)
9d006fe4:	8fa50014 	lw	a1,20(sp)
9d006fe8:	8fa60018 	lw	a2,24(sp)
9d006fec:	8fa7001c 	lw	a3,28(sp)
9d006ff0:	8fa80020 	lw	t0,32(sp)
9d006ff4:	8fa90024 	lw	t1,36(sp)
9d006ff8:	8faa0028 	lw	t2,40(sp)
9d006ffc:	8fab002c 	lw	t3,44(sp)
9d007000:	8fac0030 	lw	t4,48(sp)
9d007004:	8fad0034 	lw	t5,52(sp)
9d007008:	8fae0038 	lw	t6,56(sp)
9d00700c:	8faf003c 	lw	t7,60(sp)
9d007010:	8fb80040 	lw	t8,64(sp)
9d007014:	8fb90044 	lw	t9,68(sp)
9d007018:	8fbf0048 	lw	ra,72(sp)
9d00701c:	27bd0058 	addiu	sp,sp,88
9d007020:	000000c0 	ehb
9d007024:	42000018 	eret

Disassembly of section .rodata:

9d007028 <dpowers-0x30>:
9d007028:	6c756e28 	0x6c756e28
9d00702c:	0000296c 	0x296c
9d007030:	33323130 	andi	s2,t9,0x3130
9d007034:	37363534 	ori	s6,t9,0x3534
9d007038:	42413938 	c0	0x413938
9d00703c:	46454443 	c1	0x454443
9d007040:	00000000 	nop
9d007044:	33323130 	andi	s2,t9,0x3130
9d007048:	37363534 	ori	s6,t9,0x3534
9d00704c:	62613938 	0x62613938
9d007050:	66656463 	0x66656463
9d007054:	00000000 	nop

9d007058 <dpowers>:
9d007058:	00000001 00000000 0000000a 00000000     ................
9d007068:	00000064 00000000 000003e8 00000000     d...............
9d007078:	00002710 00000000 000186a0 00000000     .'..............
9d007088:	000f4240 00000000 00989680 00000000     @B..............
9d007098:	05f5e100 00000000 3b9aca00 00000000     ...........;....
9d0070a8:	540be400 00000002 4876e800 00000017     ...T......vH....
9d0070b8:	d4a51000 000000e8 4e72a000 00000918     ..........rN....
9d0070c8:	107a4000 00005af3 a4c68000 00038d7e     .@z..Z......~...
9d0070d8:	6fc10000 002386f2 5d8a0000 01634578     ...o..#....]xEc.
9d0070e8:	a7640000 0de0b6b3 89e80000 8ac72304     ..d..........#..

Disassembly of section .text._mon_putc:

9d0070f8 <_mon_putc>:
9d0070f8:	3c02a000 	lui	v0,0xa000
9d0070fc:	8c420038 	lw	v0,56(v0)
9d007100:	14400007 	bnez	v0,9d007120 <_mon_putc+0x28>
9d007104:	7c042420 	seb	a0,a0
9d007108:	3c020000 	lui	v0,0x0
9d00710c:	24420000 	addiu	v0,v0,0
9d007110:	10400021 	beqz	v0,9d007198 <_mon_putc+0xa0>
9d007114:	3c020000 	lui	v0,0x0
9d007118:	08000000 	j	90000000 <_bmxdkpba_address+0x8ffe0000>
9d00711c:	00000000 	nop
9d007120:	24030001 	li	v1,1
9d007124:	10430014 	beq	v0,v1,9d007178 <_mon_putc+0x80>
9d007128:	3c05bf80 	lui	a1,0xbf80
9d00712c:	3c05bf80 	lui	a1,0xbf80
9d007130:	3c02bf80 	lui	v0,0xbf80
9d007134:	3c06bf80 	lui	a2,0xbf80
9d007138:	3c03bf80 	lui	v1,0xbf80
9d00713c:	24a56820 	addiu	a1,a1,26656
9d007140:	24426818 	addiu	v0,v0,26648
9d007144:	24c66808 	addiu	a2,a2,26632
9d007148:	24636810 	addiu	v1,v1,26640
9d00714c:	34078000 	li	a3,0x8000
9d007150:	acc70000 	sw	a3,0(a2)
9d007154:	24060400 	li	a2,1024
9d007158:	ac460000 	sw	a2,0(v0)
9d00715c:	8c620000 	lw	v0,0(v1)
9d007160:	30420100 	andi	v0,v0,0x100
9d007164:	1040fffd 	beqz	v0,9d00715c <_mon_putc+0x64>
9d007168:	00000000 	nop
9d00716c:	aca40000 	sw	a0,0(a1)
9d007170:	03e00008 	jr	ra
9d007174:	00000000 	nop
9d007178:	3c02bf80 	lui	v0,0xbf80
9d00717c:	3c06bf80 	lui	a2,0xbf80
9d007180:	3c03bf80 	lui	v1,0xbf80
9d007184:	24a56020 	addiu	a1,a1,24608
9d007188:	24426018 	addiu	v0,v0,24600
9d00718c:	24c66008 	addiu	a2,a2,24584
9d007190:	0b401c53 	j	9d00714c <_mon_putc+0x54>
9d007194:	24636010 	addiu	v1,v1,24592
9d007198:	24420000 	addiu	v0,v0,0
9d00719c:	1040ffe4 	beqz	v0,9d007130 <_mon_putc+0x38>
9d0071a0:	3c05bf80 	lui	a1,0xbf80
9d0071a4:	08000000 	j	90000000 <_bmxdkpba_address+0x8ffe0000>
9d0071a8:	00000000 	nop

Disassembly of section .text.atoi:

9d0071ac <atoi>:
9d0071ac:	24020020 	li	v0,32
9d0071b0:	24050009 	li	a1,9
9d0071b4:	80830000 	lb	v1,0(a0)
9d0071b8:	5062fffe 	beql	v1,v0,9d0071b4 <atoi+0x8>
9d0071bc:	24840001 	addiu	a0,a0,1
9d0071c0:	54650003 	bnel	v1,a1,9d0071d0 <atoi+0x24>
9d0071c4:	2402002d 	li	v0,45
9d0071c8:	0b401c6d 	j	9d0071b4 <atoi+0x8>
9d0071cc:	24840001 	addiu	a0,a0,1
9d0071d0:	1062001a 	beq	v1,v0,9d00723c <atoi+0x90>
9d0071d4:	2402002b 	li	v0,43
9d0071d8:	5062001c 	beql	v1,v0,9d00724c <atoi+0xa0>
9d0071dc:	24840001 	addiu	a0,a0,1
9d0071e0:	00003821 	move	a3,zero
9d0071e4:	3c069d00 	lui	a2,0x9d00
9d0071e8:	24c66c44 	addiu	a2,a2,27716
9d0071ec:	00c31021 	addu	v0,a2,v1
9d0071f0:	90420001 	lbu	v0,1(v0)
9d0071f4:	30420004 	andi	v0,v0,0x4
9d0071f8:	1040000c 	beqz	v0,9d00722c <atoi+0x80>
9d0071fc:	00001021 	move	v0,zero
9d007200:	00022840 	sll	a1,v0,0x1
9d007204:	000210c0 	sll	v0,v0,0x3
9d007208:	00a21021 	addu	v0,a1,v0
9d00720c:	24840001 	addiu	a0,a0,1
9d007210:	00431021 	addu	v0,v0,v1
9d007214:	80830000 	lb	v1,0(a0)
9d007218:	00c32821 	addu	a1,a2,v1
9d00721c:	90a50001 	lbu	a1,1(a1)
9d007220:	30a50004 	andi	a1,a1,0x4
9d007224:	14a0fff6 	bnez	a1,9d007200 <atoi+0x54>
9d007228:	2442ffd0 	addiu	v0,v0,-48
9d00722c:	54e00001 	bnezl	a3,9d007234 <atoi+0x88>
9d007230:	00021023 	negu	v0,v0
9d007234:	03e00008 	jr	ra
9d007238:	00000000 	nop
9d00723c:	24840001 	addiu	a0,a0,1
9d007240:	80830000 	lb	v1,0(a0)
9d007244:	0b401c79 	j	9d0071e4 <atoi+0x38>
9d007248:	24070001 	li	a3,1
9d00724c:	80830000 	lb	v1,0(a0)
9d007250:	0b401c79 	j	9d0071e4 <atoi+0x38>
9d007254:	00003821 	move	a3,zero

Disassembly of section .text.fptodp:

9d007258 <__extendsfdf2>:
9d007258:	00043dc2 30e700ff 3c018000 00813024     .=.....0...<$0..
9d007268:	24e9ffff 2d2100fe 1020000d 00000000     ...$..!-.. .....

9d007278 <Glab1>:
9d007278:	24e70380 	addiu	a3,a3,896
9d00727c:	00044a40 	sll	t1,a0,0x9
9d007280:	00094b02 	srl	t1,t1,0xc
9d007284:	00c93025 	or	a2,a2,t1
9d007288:	00042f40 	sll	a1,a0,0x1d

9d00728c <Gret>:
9d00728c:	00074d00 	sll	t1,a3,0x14
9d007290:	00c93025 	or	a2,a2,t1
9d007294:	00051025 	or	v0,zero,a1
9d007298:	00061825 	or	v1,zero,a2

9d00729c <G999>:
9d00729c:	03e00008 	jr	ra
9d0072a0:	00000000 	nop
9d0072a4:	00000000 	nop

9d0072a8 <Gspec>:
9d0072a8:	24050000 	li	a1,0
9d0072ac:	00842021 	addu	a0,a0,a0
9d0072b0:	1080fff6 	beqz	a0,9d00728c <Gret>
9d0072b4:	00000000 	nop
9d0072b8:	14e00009 	bnez	a3,9d0072e0 <i42>
9d0072bc:	00000000 	nop

9d0072c0 <b43>:
9d0072c0:	24e7ffff 	addiu	a3,a3,-1
9d0072c4:	00842021 	addu	a0,a0,a0
9d0072c8:	3c010080 	lui	at,0x80
9d0072cc:	0081082b 	sltu	at,a0,at
9d0072d0:	1420fffb 	bnez	at,9d0072c0 <b43>
9d0072d4:	00000000 	nop
9d0072d8:	1000ffe7 	b	9d007278 <Glab1>
9d0072dc:	00000000 	nop

9d0072e0 <i42>:
9d0072e0:	240707ff 	li	a3,2047
9d0072e4:	3c01ff00 	lui	at,0xff00
9d0072e8:	34210001 	ori	at,at,0x1
9d0072ec:	0081082b 	sltu	at,a0,at
9d0072f0:	1420ffe6 	bnez	at,9d00728c <Gret>
9d0072f4:	00000000 	nop
9d0072f8:	1000ffe4 	b	9d00728c <Gret>
9d0072fc:	3c06fff8 	lui	a2,0xfff8
9d007300:	00000000 	nop

Disassembly of section .text.range:

9d007304 <range>:
9d007304:	27bdffe0 	addiu	sp,sp,-32
9d007308:	afb00018 	sw	s0,24(sp)
9d00730c:	3c109d00 	lui	s0,0x9d00
9d007310:	26106c44 	addiu	s0,s0,27716
9d007314:	00901821 	addu	v1,a0,s0
9d007318:	90630001 	lbu	v1,1(v1)
9d00731c:	afbf001c 	sw	ra,28(sp)
9d007320:	30670004 	andi	a3,v1,0x4
9d007324:	10e00009 	beqz	a3,9d00734c <range+0x48>
9d007328:	00801021 	move	v0,a0
9d00732c:	2482ffd0 	addiu	v0,a0,-48
9d007330:	0045282a 	slt	a1,v0,a1
9d007334:	10a00011 	beqz	a1,9d00737c <range+0x78>
9d007338:	8fbf001c 	lw	ra,28(sp)
9d00733c:	304200ff 	andi	v0,v0,0xff
9d007340:	8fb00018 	lw	s0,24(sp)
9d007344:	03e00008 	jr	ra
9d007348:	27bd0020 	addiu	sp,sp,32
9d00734c:	30670001 	andi	a3,v1,0x1
9d007350:	50e00004 	beqzl	a3,9d007364 <range+0x60>
9d007354:	30630003 	andi	v1,v1,0x3
9d007358:	14c0000c 	bnez	a2,9d00738c <range+0x88>
9d00735c:	00000000 	nop
9d007360:	30630003 	andi	v1,v1,0x3
9d007364:	10600004 	beqz	v1,9d007378 <range+0x74>
9d007368:	2442ffa9 	addiu	v0,v0,-87
9d00736c:	0045282a 	slt	a1,v0,a1
9d007370:	14a0fff2 	bnez	a1,9d00733c <range+0x38>
9d007374:	8fbf001c 	lw	ra,28(sp)
9d007378:	8fbf001c 	lw	ra,28(sp)
9d00737c:	240200ff 	li	v0,255
9d007380:	8fb00018 	lw	s0,24(sp)
9d007384:	03e00008 	jr	ra
9d007388:	27bd0020 	addiu	sp,sp,32
9d00738c:	0f401e59 	jal	9d007964 <.LFE2>
9d007390:	afa50010 	sw	a1,16(sp)
9d007394:	00508021 	addu	s0,v0,s0
9d007398:	92030001 	lbu	v1,1(s0)
9d00739c:	0b401cd8 	j	9d007360 <range+0x5c>
9d0073a0:	8fa50010 	lw	a1,16(sp)

Disassembly of section .text.fflush:

9d0073a4 <fflush>:
9d0073a4:	9482000c 	lhu	v0,12(a0)
9d0073a8:	27bdffe8 	addiu	sp,sp,-24
9d0073ac:	afb00010 	sw	s0,16(sp)
9d0073b0:	24030001 	li	v1,1
9d0073b4:	00808021 	move	s0,a0
9d0073b8:	30440201 	andi	a0,v0,0x201
9d0073bc:	10830017 	beq	a0,v1,9d00741c <fflush+0x78>
9d0073c0:	afbf0014 	sw	ra,20(sp)
9d0073c4:	30420202 	andi	v0,v0,0x202
9d0073c8:	24030202 	li	v1,514
9d0073cc:	50430006 	beql	v0,v1,9d0073e8 <fflush+0x44>
9d0073d0:	8e050008 	lw	a1,8(s0)
9d0073d4:	00001021 	move	v0,zero
9d0073d8:	8fbf0014 	lw	ra,20(sp)
9d0073dc:	8fb00010 	lw	s0,16(sp)
9d0073e0:	03e00008 	jr	ra
9d0073e4:	27bd0018 	addiu	sp,sp,24
9d0073e8:	10a0fffb 	beqz	a1,9d0073d8 <fflush+0x34>
9d0073ec:	00001021 	move	v0,zero
9d0073f0:	8e060004 	lw	a2,4(s0)
9d0073f4:	10c0fff9 	beqz	a2,9d0073dc <fflush+0x38>
9d0073f8:	8fbf0014 	lw	ra,20(sp)
9d0073fc:	0f401d0e 	jal	9d007438 <.LFE0>
9d007400:	9604000e 	lhu	a0,14(s0)
9d007404:	8e030004 	lw	v1,4(s0)
9d007408:	10430004 	beq	v0,v1,9d00741c <fflush+0x78>
9d00740c:	9602000c 	lhu	v0,12(s0)
9d007410:	34420030 	ori	v0,v0,0x30
9d007414:	3042ffff 	andi	v0,v0,0xffff
9d007418:	a602000c 	sh	v0,12(s0)
9d00741c:	8e030008 	lw	v1,8(s0)
9d007420:	30420020 	andi	v0,v0,0x20
9d007424:	ae000004 	sw	zero,4(s0)
9d007428:	1040ffea 	beqz	v0,9d0073d4 <fflush+0x30>
9d00742c:	ae030000 	sw	v1,0(s0)
9d007430:	0b401cf6 	j	9d0073d8 <fflush+0x34>
9d007434:	2402ffff 	li	v0,-1

Disassembly of section .text.write:

9d007438 <write>:
9d007438:	27bdffe0 	addiu	sp,sp,-32
9d00743c:	afbf001c 	sw	ra,28(sp)
9d007440:	10a00012 	beqz	a1,9d00748c <write+0x54>
9d007444:	afb00018 	sw	s0,24(sp)
9d007448:	10c00010 	beqz	a2,9d00748c <write+0x54>
9d00744c:	2c840003 	sltiu	a0,a0,3
9d007450:	14800006 	bnez	a0,9d00746c <write+0x34>
9d007454:	3c020000 	lui	v0,0x0
9d007458:	8fbf001c 	lw	ra,28(sp)
9d00745c:	00c01021 	move	v0,a2
9d007460:	8fb00018 	lw	s0,24(sp)
9d007464:	03e00008 	jr	ra
9d007468:	27bd0020 	addiu	sp,sp,32
9d00746c:	24420000 	addiu	v0,v0,0
9d007470:	1040000b 	beqz	v0,9d0074a0 <write+0x68>
9d007474:	00a02021 	move	a0,a1
9d007478:	00c02821 	move	a1,a2
9d00747c:	0c000000 	jal	90000000 <_bmxdkpba_address+0x8ffe0000>
9d007480:	afa60014 	sw	a2,20(sp)
9d007484:	0b401d16 	j	9d007458 <write+0x20>
9d007488:	8fa60014 	lw	a2,20(sp)
9d00748c:	8fbf001c 	lw	ra,28(sp)
9d007490:	00001021 	move	v0,zero
9d007494:	8fb00018 	lw	s0,24(sp)
9d007498:	03e00008 	jr	ra
9d00749c:	27bd0020 	addiu	sp,sp,32
9d0074a0:	00a68021 	addu	s0,a1,a2
9d0074a4:	80a40000 	lb	a0,0(a1)
9d0074a8:	24a50001 	addiu	a1,a1,1
9d0074ac:	afa50010 	sw	a1,16(sp)
9d0074b0:	0f401c3e 	jal	9d0070f8 <_mon_putc>
9d0074b4:	afa60014 	sw	a2,20(sp)
9d0074b8:	8fa50010 	lw	a1,16(sp)
9d0074bc:	14b0fff9 	bne	a1,s0,9d0074a4 <write+0x6c>
9d0074c0:	8fa60014 	lw	a2,20(sp)
9d0074c4:	0b401d17 	j	9d00745c <write+0x24>
9d0074c8:	8fbf001c 	lw	ra,28(sp)

Disassembly of section .text.ungetc:

9d0074cc <ungetc>:
9d0074cc:	2403ffff 	li	v1,-1
9d0074d0:	14830003 	bne	a0,v1,9d0074e0 <ungetc+0x14>
9d0074d4:	00801021 	move	v0,a0
9d0074d8:	03e00008 	jr	ra
9d0074dc:	00000000 	nop
9d0074e0:	94a3000c 	lhu	v1,12(a1)
9d0074e4:	24040001 	li	a0,1
9d0074e8:	30660201 	andi	a2,v1,0x201
9d0074ec:	50c40003 	beql	a2,a0,9d0074fc <ungetc+0x30>
9d0074f0:	8ca70008 	lw	a3,8(a1)
9d0074f4:	03e00008 	jr	ra
9d0074f8:	2402ffff 	li	v0,-1
9d0074fc:	50e0fff6 	beqzl	a3,9d0074d8 <ungetc+0xc>
9d007500:	2402ffff 	li	v0,-1
9d007504:	8ca60004 	lw	a2,4(a1)
9d007508:	8ca40010 	lw	a0,16(a1)
9d00750c:	50c4fff2 	beql	a2,a0,9d0074d8 <ungetc+0xc>
9d007510:	2402ffff 	li	v0,-1
9d007514:	8ca40000 	lw	a0,0(a1)
9d007518:	10e40008 	beq	a3,a0,9d00753c <ungetc+0x70>
9d00751c:	24c60001 	addiu	a2,a2,1
9d007520:	aca60004 	sw	a2,4(a1)
9d007524:	2486ffff 	addiu	a2,a0,-1
9d007528:	30630040 	andi	v1,v1,0x40
9d00752c:	1460ffea 	bnez	v1,9d0074d8 <ungetc+0xc>
9d007530:	aca60000 	sw	a2,0(a1)
9d007534:	03e00008 	jr	ra
9d007538:	a082ffff 	sb	v0,-1(a0)
9d00753c:	24840001 	addiu	a0,a0,1
9d007540:	0b401d49 	j	9d007524 <ungetc+0x58>
9d007544:	aca40000 	sw	a0,0(a1)

Disassembly of section .text.litodp:

9d007548 <__floatsidf>:
9d007548:	24050000 00054825 00053825 00043025     ...$%H..%8..%0..
9d007558:	10c0000c 00000000 04c10006 00000000     ................
9d007568:	3c098000 0005502b 00052823 00063023     ...<+P..#(..#0..
9d007578:	00ca3023                                #0..

9d00757c <i40>:
9d00757c:	2407041e 	li	a3,1054
9d007580:	70c84020 	clz	t0,a2
9d007584:	00e83823 	subu	a3,a3,t0
9d007588:	01063004 	sllv	a2,a2,t0

9d00758c <i39>:
9d00758c:	000542c2 	srl	t0,a1,0xb
9d007590:	00065540 	sll	t2,a2,0x15
9d007594:	010a4025 	or	t0,t0,t2
9d007598:	00065040 	sll	t2,a2,0x1
9d00759c:	000a5302 	srl	t2,t2,0xc
9d0075a0:	012a4825 	or	t1,t1,t2
9d0075a4:	00075500 	sll	t2,a3,0x14
9d0075a8:	012a4825 	or	t1,t1,t2
9d0075ac:	00081025 	or	v0,zero,t0
9d0075b0:	00091825 	or	v1,zero,t1

9d0075b4 <E999>:
9d0075b4:	03e00008 	jr	ra
9d0075b8:	00000000 	nop
9d0075bc:	00000000 	nop

Disassembly of section .text._sprintf_cdnopuxX:

9d0075c0 <_sprintf_cdnopuxX>:
9d0075c0:	27bdffd0 	addiu	sp,sp,-48
9d0075c4:	27a20038 	addiu	v0,sp,56
9d0075c8:	afa60038 	sw	a2,56(sp)
9d0075cc:	afa20010 	sw	v0,16(sp)
9d0075d0:	00403021 	move	a2,v0
9d0075d4:	24027fff 	li	v0,32767
9d0075d8:	afb00028 	sw	s0,40(sp)
9d0075dc:	afa20024 	sw	v0,36(sp)
9d0075e0:	00808021 	move	s0,a0
9d0075e4:	240200c2 	li	v0,194
9d0075e8:	27a40014 	addiu	a0,sp,20
9d0075ec:	afbf002c 	sw	ra,44(sp)
9d0075f0:	afb00014 	sw	s0,20(sp)
9d0075f4:	afb0001c 	sw	s0,28(sp)
9d0075f8:	afa7003c 	sw	a3,60(sp)
9d0075fc:	afa00018 	sw	zero,24(sp)
9d007600:	0f400780 	jal	9d001e00 <_vfprintf_cdnopuxX>
9d007604:	a7a20020 	sh	v0,32(sp)
9d007608:	8fa20014 	lw	v0,20(sp)
9d00760c:	a0400000 	sb	zero,0(v0)
9d007610:	8fa20014 	lw	v0,20(sp)
9d007614:	8fbf002c 	lw	ra,44(sp)
9d007618:	00501023 	subu	v0,v0,s0
9d00761c:	8fb00028 	lw	s0,40(sp)
9d007620:	03e00008 	jr	ra
9d007624:	27bd0030 	addiu	sp,sp,48

Disassembly of section .text.wspace:

9d007628 <wspace>:
9d007628:	27bdffe0 	addiu	sp,sp,-32
9d00762c:	afb00014 	sw	s0,20(sp)
9d007630:	3c109d00 	lui	s0,0x9d00
9d007634:	afb10018 	sw	s1,24(sp)
9d007638:	afbf001c 	sw	ra,28(sp)
9d00763c:	3c11a000 	lui	s1,0xa000
9d007640:	26106c44 	addiu	s0,s0,27716
9d007644:	0f401acf 	jal	9d006b3c <.LFE0>
9d007648:	8e241724 	lw	a0,5924(s1)
9d00764c:	02021821 	addu	v1,s0,v0
9d007650:	80630001 	lb	v1,1(v1)
9d007654:	30630088 	andi	v1,v1,0x88
9d007658:	1460fffa 	bnez	v1,9d007644 <wspace+0x1c>
9d00765c:	2403ffff 	li	v1,-1
9d007660:	10430004 	beq	v0,v1,9d007674 <wspace+0x4c>
9d007664:	3c03a000 	lui	v1,0xa000
9d007668:	8c651724 	lw	a1,5924(v1)
9d00766c:	0f401d33 	jal	9d0074cc <.LFE0>
9d007670:	00402021 	move	a0,v0
9d007674:	8fbf001c 	lw	ra,28(sp)
9d007678:	8fb10018 	lw	s1,24(sp)
9d00767c:	8fb00014 	lw	s0,20(sp)
9d007680:	03e00008 	jr	ra
9d007684:	27bd0020 	addiu	sp,sp,32

Disassembly of section .text.sitofp:

9d007688 <__floatsisf>:
9d007688:	3c018000 10800012 00813024 04810002     ...<....$0......
9d007698:	00000000 00042023                       ....# ..

9d0076a0 <i40>:
9d0076a0:	2405009e 	li	a1,158
9d0076a4:	70873820 	clz	a3,a0
9d0076a8:	00a72823 	subu	a1,a1,a3
9d0076ac:	00e42004 	sllv	a0,a0,a3
9d0076b0:	24840080 	addiu	a0,a0,128
9d0076b4:	2c880080 	sltiu	t0,a0,128
9d0076b8:	00a82821 	addu	a1,a1,t0
9d0076bc:	00044203 	sra	t0,a0,0x8
9d0076c0:	31080001 	andi	t0,t0,0x1
9d0076c4:	00882023 	subu	a0,a0,t0
9d0076c8:	00042040 	sll	a0,a0,0x1
9d0076cc:	00042242 	srl	a0,a0,0x9
9d0076d0:	000545c0 	sll	t0,a1,0x17
9d0076d4:	00882025 	or	a0,a0,t0

9d0076d8 <i39>:
9d0076d8:	00861025 	or	v0,a0,a2

9d0076dc <E999>:
9d0076dc:	03e00008 	jr	ra
9d0076e0:	00000000 	nop
9d0076e4:	00000000 	nop

Disassembly of section .text._sscanf_fF:

9d0076e8 <_sscanf_fF>:
9d0076e8:	27bdffc8 	addiu	sp,sp,-56
9d0076ec:	27a30040 	addiu	v1,sp,64
9d0076f0:	afbf0034 	sw	ra,52(sp)
9d0076f4:	afa60040 	sw	a2,64(sp)
9d0076f8:	afa70044 	sw	a3,68(sp)
9d0076fc:	afa30010 	sw	v1,16(sp)
9d007700:	afa40014 	sw	a0,20(sp)
9d007704:	afa4001c 	sw	a0,28(sp)
9d007708:	0f401e80 	jal	9d007a00 <strlen>
9d00770c:	afa50028 	sw	a1,40(sp)
9d007710:	8fa60010 	lw	a2,16(sp)
9d007714:	8fa50028 	lw	a1,40(sp)
9d007718:	afa20018 	sw	v0,24(sp)
9d00771c:	afa20024 	sw	v0,36(sp)
9d007720:	27a40014 	addiu	a0,sp,20
9d007724:	240200c1 	li	v0,193
9d007728:	0f400a41 	jal	9d002904 <.LFE0>
9d00772c:	a7a20020 	sh	v0,32(sp)
9d007730:	8fbf0034 	lw	ra,52(sp)
9d007734:	03e00008 	jr	ra
9d007738:	27bd0038 	addiu	sp,sp,56

Disassembly of section .text.main_entry:

9d00773c <_main_entry>:
9d00773c:	3c040000 	lui	a0,0x0
9d007740:	27bdffe8 	addiu	sp,sp,-24
9d007744:	24840000 	addiu	a0,a0,0
9d007748:	10800003 	beqz	a0,9d007758 <_main_entry+0x1c>
9d00774c:	afbf0014 	sw	ra,20(sp)
9d007750:	0080f809 	jalr	a0
9d007754:	00000000 	nop
9d007758:	30840000 	andi	a0,a0,0x0
9d00775c:	30a50000 	andi	a1,a1,0x0
9d007760:	0f400d8f 	jal	9d00363c <main>
9d007764:	00000000 	nop

9d007768 <__crt0_exit>:
9d007768:	3c020000 24420000 10400003 00000000     ...<..B$..@.....
9d007778:	0040f809 00000000 1000fff9 00000000     ..@.............

Disassembly of section .text._bootstrap_exception_handler:

9d007788 <_bootstrap_exception_handler>:
9d007788:	3c020000 	lui	v0,0x0
9d00778c:	27bdffe8 	addiu	sp,sp,-24
9d007790:	24420000 	addiu	v0,v0,0
9d007794:	10400006 	beqz	v0,9d0077b0 <_bootstrap_exception_handler+0x28>
9d007798:	afbf0014 	sw	ra,20(sp)
9d00779c:	3c020000 	lui	v0,0x0
9d0077a0:	24420000 	addiu	v0,v0,0
9d0077a4:	10400003 	beqz	v0,9d0077b4 <_bootstrap_exception_handler+0x2c>
9d0077a8:	3c029d00 	lui	v0,0x9d00
9d0077ac:	7000003f 	sdbbp
9d0077b0:	3c029d00 	lui	v0,0x9d00
9d0077b4:	24427860 	addiu	v0,v0,30816
9d0077b8:	10400003 	beqz	v0,9d0077c8 <_bootstrap_exception_handler+0x40>
9d0077bc:	00000000 	nop
9d0077c0:	0040f809 	jalr	v0
9d0077c4:	00000000 	nop
9d0077c8:	0b401df2 	j	9d0077c8 <_bootstrap_exception_handler+0x40>
9d0077cc:	00000000 	nop

Disassembly of section .text._general_exception_handler:

9d0077d0 <_general_exception_handler>:
9d0077d0:	3c020000 	lui	v0,0x0
9d0077d4:	27bdffe8 	addiu	sp,sp,-24
9d0077d8:	24420000 	addiu	v0,v0,0
9d0077dc:	10400006 	beqz	v0,9d0077f8 <_general_exception_handler+0x28>
9d0077e0:	afbf0014 	sw	ra,20(sp)
9d0077e4:	3c020000 	lui	v0,0x0
9d0077e8:	24420000 	addiu	v0,v0,0
9d0077ec:	10400003 	beqz	v0,9d0077fc <_general_exception_handler+0x2c>
9d0077f0:	3c029d00 	lui	v0,0x9d00
9d0077f4:	7000003f 	sdbbp
9d0077f8:	3c029d00 	lui	v0,0x9d00
9d0077fc:	24427860 	addiu	v0,v0,30816
9d007800:	10400003 	beqz	v0,9d007810 <_general_exception_handler+0x40>
9d007804:	00000000 	nop
9d007808:	0040f809 	jalr	v0
9d00780c:	00000000 	nop
9d007810:	0b401e04 	j	9d007810 <_general_exception_handler+0x40>
9d007814:	00000000 	nop

Disassembly of section .rodata:

9d007818 <f5pow>:
9d007818:	00000000 40140000 00000000 40390000     .......@......9@
9d007828:	00000000 40838800 00000000 4117d784     .......@.......A
9d007838:	37e08000 4241c379 b5056e17 4493b8b5     ...7y.AB.n.....D
9d007848:	e93ff9f5 49384f03 f9301d32 52827748     ..?..O8I2.0.Hw.R
9d007858:	7f73bf3c 65154fdd                       <.s..O.e

Disassembly of section .text:

9d007860 <__pic32_software_reset>:
9d007860:	41606000 	di
9d007864:	000000c0 	ehb
9d007868:	3c03aa99 	lui	v1,0xaa99
9d00786c:	3c02bf81 	lui	v0,0xbf81
9d007870:	24636655 	addiu	v1,v1,26197
9d007874:	ac40f230 	sw	zero,-3536(v0)
9d007878:	ac43f230 	sw	v1,-3536(v0)
9d00787c:	3c035566 	lui	v1,0x5566
9d007880:	346399aa 	ori	v1,v1,0x99aa
9d007884:	ac43f230 	sw	v1,-3536(v0)
9d007888:	3c02bf81 	lui	v0,0xbf81
9d00788c:	24030001 	li	v1,1
9d007890:	ac43f618 	sw	v1,-2536(v0)
9d007894:	3c02bf81 	lui	v0,0xbf81
9d007898:	8c42f610 	lw	v0,-2544(v0)
9d00789c:	0b401e1a 	j	9d007868 <__pic32_software_reset+0x8>
9d0078a0:	00000000 	nop

9d0078a4 <__lshrdi3>:
9d0078a4:	10c0000a 	beqz	a2,9d0078d0 <__lshrdi3+0x2c>
9d0078a8:	00801021 	move	v0,a0
9d0078ac:	24030020 	li	v1,32
9d0078b0:	00661823 	subu	v1,v1,a2
9d0078b4:	58600008 	blezl	v1,9d0078d8 <__lshrdi3+0x34>
9d0078b8:	00031023 	negu	v0,v1
9d0078bc:	00651804 	sllv	v1,a1,v1
9d0078c0:	00c41006 	srlv	v0,a0,a2
9d0078c4:	00c53006 	srlv	a2,a1,a2
9d0078c8:	00621025 	or	v0,v1,v0
9d0078cc:	00c02821 	move	a1,a2
9d0078d0:	03e00008 	jr	ra
9d0078d4:	00a01821 	move	v1,a1
9d0078d8:	00003021 	move	a2,zero
9d0078dc:	00451006 	srlv	v0,a1,v0
9d0078e0:	0b401e34 	j	9d0078d0 <__lshrdi3+0x2c>
9d0078e4:	00c02821 	move	a1,a2

9d0078e8 <__ashldi3>:
9d0078e8:	10c0000a 	beqz	a2,9d007914 <__ashldi3+0x2c>
9d0078ec:	00801021 	move	v0,a0
9d0078f0:	24030020 	li	v1,32
9d0078f4:	00661823 	subu	v1,v1,a2
9d0078f8:	58600008 	blezl	v1,9d00791c <__ashldi3+0x34>
9d0078fc:	00032823 	negu	a1,v1
9d007900:	00c52804 	sllv	a1,a1,a2
9d007904:	00641806 	srlv	v1,a0,v1
9d007908:	00c43004 	sllv	a2,a0,a2
9d00790c:	00652825 	or	a1,v1,a1
9d007910:	00c01021 	move	v0,a2
9d007914:	03e00008 	jr	ra
9d007918:	00a01821 	move	v1,a1
9d00791c:	00003021 	move	a2,zero
9d007920:	00a42804 	sllv	a1,a0,a1
9d007924:	0b401e45 	j	9d007914 <__ashldi3+0x2c>
9d007928:	00c01021 	move	v0,a2

Disassembly of section .vector_default:

9d00792c <_DefaultInterrupt>:
9d00792c:	3c020000 	lui	v0,0x0
9d007930:	24420000 	addiu	v0,v0,0
9d007934:	10400005 	beqz	v0,9d00794c <_DefaultInterrupt+0x20>
9d007938:	3c020000 	lui	v0,0x0
9d00793c:	24420000 	addiu	v0,v0,0
9d007940:	10400003 	beqz	v0,9d007950 <_DefaultInterrupt+0x24>
9d007944:	3c029d00 	lui	v0,0x9d00
9d007948:	7000003f 	sdbbp
9d00794c:	3c029d00 	lui	v0,0x9d00
9d007950:	24427860 	addiu	v0,v0,30816
9d007954:	1040fffd 	beqz	v0,9d00794c <_DefaultInterrupt+0x20>
9d007958:	00000000 	nop
9d00795c:	0040f809 	jalr	v0
9d007960:	00000000 	nop

Disassembly of section .text.tolower:

9d007964 <tolower>:
9d007964:	3c039d00 	lui	v1,0x9d00
9d007968:	24636c44 	addiu	v1,v1,27716
9d00796c:	00831821 	addu	v1,a0,v1
9d007970:	90630001 	lbu	v1,1(v1)
9d007974:	30630001 	andi	v1,v1,0x1
9d007978:	10600002 	beqz	v1,9d007984 <tolower+0x20>
9d00797c:	00801021 	move	v0,a0
9d007980:	24820020 	addiu	v0,a0,32
9d007984:	03e00008 	jr	ra
9d007988:	00000000 	nop

Disassembly of section .text.toupper:

9d00798c <toupper>:
9d00798c:	3c039d00 	lui	v1,0x9d00
9d007990:	24636c44 	addiu	v1,v1,27716
9d007994:	00831821 	addu	v1,a0,v1
9d007998:	90630001 	lbu	v1,1(v1)
9d00799c:	30630002 	andi	v1,v1,0x2
9d0079a0:	10600002 	beqz	v1,9d0079ac <toupper+0x20>
9d0079a4:	00801021 	move	v0,a0
9d0079a8:	2482ffe0 	addiu	v0,a0,-32
9d0079ac:	03e00008 	jr	ra
9d0079b0:	00000000 	nop

Disassembly of section .text.strtod:

9d0079b4 <strtod>:
9d0079b4:	27bdffe8 	addiu	sp,sp,-24
9d0079b8:	afbf0014 	sw	ra,20(sp)
9d0079bc:	0f40138f 	jal	9d004e3c <__strtod>
9d0079c0:	00000000 	nop
9d0079c4:	00402021 	move	a0,v0
9d0079c8:	0f401b93 	jal	9d006e4c <.LFE23>
9d0079cc:	00602821 	move	a1,v1
9d0079d0:	8fbf0014 	lw	ra,20(sp)
9d0079d4:	03e00008 	jr	ra
9d0079d8:	27bd0018 	addiu	sp,sp,24

Disassembly of section .rodata:

9d0079dc <.rodata>:
9d0079dc:	3d20704b 	0x3d20704b
9d0079e0:	00642520 	0x642520
9d0079e4:	3d20694b 	0x3d20694b
9d0079e8:	00642520 	0x642520
9d0079ec:	25206625 	addiu	zero,t1,26149
9d0079f0:	00000066 	0x66
9d0079f4:	25206425 	addiu	zero,t1,25637
9d0079f8:	64252064 	0x64252064
9d0079fc:	00000a0d 	break	0x0,0x28

Disassembly of section .text.strlen:

9d007a00 <strlen>:
9d007a00:	00801821 	move	v1,a0
9d007a04:	80650000 	lb	a1,0(v1)
9d007a08:	14a0fffe 	bnez	a1,9d007a04 <strlen+0x4>
9d007a0c:	24630001 	addiu	v1,v1,1
9d007a10:	00041027 	nor	v0,zero,a0
9d007a14:	03e00008 	jr	ra
9d007a18:	00621021 	addu	v0,v1,v0

Disassembly of section .text._dstrtod:

9d007a1c <_dstrtod>:
9d007a1c:	27bdffe8 	addiu	sp,sp,-24
9d007a20:	afbf0014 	sw	ra,20(sp)
9d007a24:	0f40138f 	jal	9d004e3c <__strtod>
9d007a28:	00000000 	nop
9d007a2c:	8fbf0014 	lw	ra,20(sp)
9d007a30:	03e00008 	jr	ra
9d007a34:	27bd0018 	addiu	sp,sp,24

Disassembly of section .text.strtof:

9d007a38 <strtof>:
9d007a38:	27bdffe8 	addiu	sp,sp,-24
9d007a3c:	afbf0014 	sw	ra,20(sp)
9d007a40:	0f40148d 	jal	9d005234 <.LFE23>
9d007a44:	00000000 	nop
9d007a48:	8fbf0014 	lw	ra,20(sp)
9d007a4c:	03e00008 	jr	ra
9d007a50:	27bd0018 	addiu	sp,sp,24

Disassembly of section .text.strtodf:

9d007a54 <strtodf>:
9d007a54:	27bdffe8 	addiu	sp,sp,-24
9d007a58:	afbf0014 	sw	ra,20(sp)
9d007a5c:	0f40148d 	jal	9d005234 <.LFE23>
9d007a60:	00000000 	nop
9d007a64:	8fbf0014 	lw	ra,20(sp)
9d007a68:	03e00008 	jr	ra
9d007a6c:	27bd0018 	addiu	sp,sp,24

Disassembly of section .text.negdf2:

9d007a70 <__negdf2>:
9d007a70:	3c018000 00a12826 00041025 00051825     ...<&(..%...%...

9d007a80 <M999>:
9d007a80:	03e00008 	jr	ra
9d007a84:	00000000 	nop
9d007a88:	00000000 	nop

Disassembly of section .text:

9d007a8c <_nmi_handler>:
9d007a8c:	401a6000 	mfc0	k0,c0_status
9d007a90:	3c1bffbf 	lui	k1,0xffbf
9d007a94:	377bffff 	ori	k1,k1,0xffff
9d007a98:	035bd024 	and	k0,k0,k1
9d007a9c:	409a6000 	mtc0	k0,c0_status
9d007aa0:	42000018 	eret

Disassembly of section .text.isalnum:

9d007aa4 <isalnum>:
9d007aa4:	3c029d00 	lui	v0,0x9d00
9d007aa8:	24426c44 	addiu	v0,v0,27716
9d007aac:	00441021 	addu	v0,v0,a0
9d007ab0:	90420001 	lbu	v0,1(v0)
9d007ab4:	03e00008 	jr	ra
9d007ab8:	30420007 	andi	v0,v0,0x7

Disassembly of section .text.isalpha:

9d007abc <isalpha>:
9d007abc:	3c029d00 	lui	v0,0x9d00
9d007ac0:	24426c44 	addiu	v0,v0,27716
9d007ac4:	00441021 	addu	v0,v0,a0
9d007ac8:	90420001 	lbu	v0,1(v0)
9d007acc:	03e00008 	jr	ra
9d007ad0:	30420003 	andi	v0,v0,0x3

Disassembly of section .text.iscntrl:

9d007ad4 <iscntrl>:
9d007ad4:	3c029d00 	lui	v0,0x9d00
9d007ad8:	24426c44 	addiu	v0,v0,27716
9d007adc:	00441021 	addu	v0,v0,a0
9d007ae0:	90420001 	lbu	v0,1(v0)
9d007ae4:	03e00008 	jr	ra
9d007ae8:	30420020 	andi	v0,v0,0x20

Disassembly of section .text.isdigit:

9d007aec <isdigit>:
9d007aec:	3c029d00 	lui	v0,0x9d00
9d007af0:	24426c44 	addiu	v0,v0,27716
9d007af4:	00441021 	addu	v0,v0,a0
9d007af8:	90420001 	lbu	v0,1(v0)
9d007afc:	03e00008 	jr	ra
9d007b00:	30420004 	andi	v0,v0,0x4

Disassembly of section .text.isgraph:

9d007b04 <isgraph>:
9d007b04:	3c029d00 	lui	v0,0x9d00
9d007b08:	24426c44 	addiu	v0,v0,27716
9d007b0c:	00441021 	addu	v0,v0,a0
9d007b10:	90420001 	lbu	v0,1(v0)
9d007b14:	03e00008 	jr	ra
9d007b18:	30420017 	andi	v0,v0,0x17

Disassembly of section .text.islower:

9d007b1c <islower>:
9d007b1c:	3c029d00 	lui	v0,0x9d00
9d007b20:	24426c44 	addiu	v0,v0,27716
9d007b24:	00441021 	addu	v0,v0,a0
9d007b28:	90420001 	lbu	v0,1(v0)
9d007b2c:	03e00008 	jr	ra
9d007b30:	30420002 	andi	v0,v0,0x2

Disassembly of section .text.isprint:

9d007b34 <isprint>:
9d007b34:	3c029d00 	lui	v0,0x9d00
9d007b38:	24426c44 	addiu	v0,v0,27716
9d007b3c:	00441021 	addu	v0,v0,a0
9d007b40:	80420001 	lb	v0,1(v0)
9d007b44:	03e00008 	jr	ra
9d007b48:	30420097 	andi	v0,v0,0x97

Disassembly of section .text.ispunct:

9d007b4c <ispunct>:
9d007b4c:	3c029d00 	lui	v0,0x9d00
9d007b50:	24426c44 	addiu	v0,v0,27716
9d007b54:	00441021 	addu	v0,v0,a0
9d007b58:	90420001 	lbu	v0,1(v0)
9d007b5c:	03e00008 	jr	ra
9d007b60:	30420010 	andi	v0,v0,0x10

Disassembly of section .text.isspace:

9d007b64 <isspace>:
9d007b64:	3c029d00 	lui	v0,0x9d00
9d007b68:	24426c44 	addiu	v0,v0,27716
9d007b6c:	00441021 	addu	v0,v0,a0
9d007b70:	80420001 	lb	v0,1(v0)
9d007b74:	03e00008 	jr	ra
9d007b78:	30420088 	andi	v0,v0,0x88

Disassembly of section .text.isupper:

9d007b7c <isupper>:
9d007b7c:	3c029d00 	lui	v0,0x9d00
9d007b80:	24426c44 	addiu	v0,v0,27716
9d007b84:	00441021 	addu	v0,v0,a0
9d007b88:	90420001 	lbu	v0,1(v0)
9d007b8c:	03e00008 	jr	ra
9d007b90:	30420001 	andi	v0,v0,0x1

Disassembly of section .text.isxdigit:

9d007b94 <isxdigit>:
9d007b94:	3c029d00 	lui	v0,0x9d00
9d007b98:	24426c44 	addiu	v0,v0,27716
9d007b9c:	00441021 	addu	v0,v0,a0
9d007ba0:	90420001 	lbu	v0,1(v0)
9d007ba4:	03e00008 	jr	ra
9d007ba8:	30420044 	andi	v0,v0,0x44

Disassembly of section .rodata:

9d007bac <f5pow>:
9d007bac:	40a00000 41c80000 441c4000 48bebc20     ...@...A.@.D ..H
9d007bbc:	520e1bca 649dc5ae                       ...R...d

Disassembly of section .text.negsf2:

9d007bc4 <__negsf2>:
9d007bc4:	3c018000 00811026                       ...<&...

9d007bcc <L999>:
9d007bcc:	03e00008 	jr	ra
9d007bd0:	00000000 	nop
9d007bd4:	00000000 	nop

Disassembly of section .text._on_reset:

9d007bd8 <_on_reset>:
9d007bd8:	03e00008 	jr	ra
9d007bdc:	00000000 	nop

Disassembly of section .text._on_bootstrap:

9d007be0 <_on_bootstrap>:
9d007be0:	03e00008 	jr	ra
9d007be4:	00000000 	nop

Disassembly of section .text.isascii:

9d007be8 <isascii>:
9d007be8:	03e00008 	jr	ra
9d007bec:	2c820080 	sltiu	v0,a0,128

Disassembly of section .text.toascii:

9d007bf0 <toascii>:
9d007bf0:	03e00008 	jr	ra
9d007bf4:	3082007f 	andi	v0,a0,0x7f

Disassembly of section .text._tolower:

9d007bf8 <_tolower>:
9d007bf8:	03e00008 	jr	ra
9d007bfc:	24820020 	addiu	v0,a0,32

Disassembly of section .text._toupper:

9d007c00 <_toupper>:
9d007c00:	03e00008 	jr	ra
9d007c04:	2482ffe0 	addiu	v0,a0,-32
